# mark_description "Intel(R) C++ Intel(R) 64 Compiler for applications running on Intel(R) 64, Version 17.0.3.191 Build 20170404";
# mark_description "";
# mark_description "-Iinclude -c -std=c++0x -Wall -Winline -Wshadow -W -O3 -qopenmp -xHOST -S";
	.file "PDE.cpp"
	.text
..TXTST0:
# -- Begin  _Z8zeroFunciidd
	.text
# mark_begin;
       .align    16,0x90
	.globl _Z8zeroFunciidd
# --- zeroFunc(int, int, double, double)
_Z8zeroFunciidd:
# parameter 1: %edi
# parameter 2: %esi
# parameter 3: %xmm0
# parameter 4: %xmm1
..B1.1:                         # Preds ..B1.0
                                # Execution count [1.00e+00]
	.cfi_startproc
	.cfi_personality 0x3,__gxx_personality_v0
..___tag_value__Z8zeroFunciidd.1:
..L2:
                                                          #13.1
        vxorpd    %xmm0, %xmm0, %xmm0                           #14.30
        ret                                                     #14.30
        .align    16,0x90
                                # LOE
	.cfi_endproc
# mark_end;
	.type	_Z8zeroFunciidd,@function
	.size	_Z8zeroFunciidd,.-_Z8zeroFunciidd
	.data
# -- End  _Z8zeroFunciidd
	.text
# -- Begin  _ZN3PDEC1Eiiii
	.text
# mark_begin;
       .align    16,0x90
	.globl _ZN3PDEC1Eiiii
# --- PDE::PDE(PDE *, int, int, int, int)
_ZN3PDEC1Eiiii:
# parameter 1: %rdi
# parameter 2: %esi
# parameter 3: %edx
# parameter 4: %ecx
# parameter 5: %r8d
..B2.1:                         # Preds ..B2.0
                                # Execution count [1.00e+00]
	.cfi_startproc
	.cfi_personality 0x3,__gxx_personality_v0
..___tag_value__ZN3PDEC1Eiiii.4:
..L5:
                                                          #19.1
        vxorpd    %xmm0, %xmm0, %xmm0                           #20.39
        addl      $2, %ecx                                      #18.109
        addl      $2, %r8d                                      #18.135
        vxorpd    %xmm4, %xmm4, %xmm4                           #21.39
        vxorpd    %xmm1, %xmm1, %xmm1                           #20.31
        vcvtsi2sd %ecx, %xmm0, %xmm0                            #20.39
        vcvtsi2sd %r8d, %xmm4, %xmm4                            #21.39
        vcvtsi2sd %esi, %xmm1, %xmm1                            #20.31
        vxorpd    %xmm6, %xmm6, %xmm6                           #21.31
        movl      $_Z8zeroFunciidd, %r9d                        #23.16
        vcvtsi2sd %edx, %xmm6, %xmm6                            #21.31
        vmovsd    .L_2il0floatpacket.19(%rip), %xmm5            #20.5
        xorl      %eax, %eax                                    #27.9
        movl      %esi, 56(%rdi)                                #18.68
        vsubsd    %xmm5, %xmm0, %xmm2                           #20.47
        vsubsd    %xmm5, %xmm4, %xmm7                           #21.47
        vdivsd    %xmm2, %xmm1, %xmm3                           #20.47
        vdivsd    %xmm7, %xmm6, %xmm8                           #21.47
        movl      %edx, 60(%rdi)                                #18.83
        movl      %ecx, 64(%rdi)                                #18.109
        movl      %r8d, 68(%rdi)                                #18.135
        vmovsd    %xmm3, 72(%rdi)                               #20.5
        vmovsd    %xmm8, 80(%rdi)                               #21.5
        movq      %r9, (%rdi)                                   #23.5
        movl      %eax, 8(%rdi)                                 #27.9
        movl      %eax, 12(%rdi)                                #27.9
        movl      %eax, 16(%rdi)                                #27.9
        movl      %eax, 20(%rdi)                                #27.9
        movq      %r9, 24(%rdi)                                 #30.9
        movq      %r9, 32(%rdi)                                 #30.9
        movq      %r9, 40(%rdi)                                 #30.9
        movq      %r9, 48(%rdi)                                 #30.9
        ret                                                     #31.1
        .align    16,0x90
                                # LOE
	.cfi_endproc
# mark_end;
	.type	_ZN3PDEC1Eiiii,@function
	.size	_ZN3PDEC1Eiiii,.-_ZN3PDEC1Eiiii
	.data
# -- End  _ZN3PDEC1Eiiii
	.text
# -- Begin  _ZN3PDEC2Eiiii
	.text
# mark_begin;
       .align    16,0x90
	.globl _ZN3PDEC2Eiiii
# --- PDE::PDE(PDE *const, int, int, int, int)
_ZN3PDEC2Eiiii:
# parameter 1: %rdi
# parameter 2: %esi
# parameter 3: %edx
# parameter 4: %ecx
# parameter 5: %r8d
..B3.1:                         # Preds ..B3.0
                                # Execution count [1.00e+00]
	.cfi_startproc
	.cfi_personality 0x3,__gxx_personality_v0
..___tag_value__ZN3PDEC2Eiiii.7:
..L8:
                                                          #18.6
        vxorpd    %xmm0, %xmm0, %xmm0                           #18.6
        addl      $2, %ecx                                      #18.6
        addl      $2, %r8d                                      #18.6
        vxorpd    %xmm4, %xmm4, %xmm4                           #18.6
        vxorpd    %xmm1, %xmm1, %xmm1                           #18.6
        vcvtsi2sd %ecx, %xmm0, %xmm0                            #18.6
        vcvtsi2sd %r8d, %xmm4, %xmm4                            #18.6
        vcvtsi2sd %esi, %xmm1, %xmm1                            #18.6
        vxorpd    %xmm6, %xmm6, %xmm6                           #18.6
        movl      $_Z8zeroFunciidd, %r9d                        #18.6
        vcvtsi2sd %edx, %xmm6, %xmm6                            #18.6
        vmovsd    .L_2il0floatpacket.19(%rip), %xmm5            #18.6
        xorl      %eax, %eax                                    #18.6
        movl      %esi, 56(%rdi)                                #18.6
        vsubsd    %xmm5, %xmm0, %xmm2                           #18.6
        vsubsd    %xmm5, %xmm4, %xmm7                           #18.6
        vdivsd    %xmm2, %xmm1, %xmm3                           #18.6
        vdivsd    %xmm7, %xmm6, %xmm8                           #18.6
        movl      %edx, 60(%rdi)                                #18.6
        movl      %ecx, 64(%rdi)                                #18.6
        movl      %r8d, 68(%rdi)                                #18.6
        vmovsd    %xmm3, 72(%rdi)                               #18.6
        vmovsd    %xmm8, 80(%rdi)                               #18.6
        movq      %r9, (%rdi)                                   #18.6
        movl      %eax, 8(%rdi)                                 #18.6
        movl      %eax, 12(%rdi)                                #18.6
        movl      %eax, 16(%rdi)                                #18.6
        movl      %eax, 20(%rdi)                                #18.6
        movq      %r9, 24(%rdi)                                 #18.6
        movq      %r9, 32(%rdi)                                 #18.6
        movq      %r9, 40(%rdi)                                 #18.6
        movq      %r9, 48(%rdi)                                 #18.6
        ret                                                     #18.6
        .align    16,0x90
                                # LOE
	.cfi_endproc
# mark_end;
	.type	_ZN3PDEC2Eiiii,@function
	.size	_ZN3PDEC2Eiiii,.-_ZN3PDEC2Eiiii
	.data
# -- End  _ZN3PDEC2Eiiii
	.text
# -- Begin  _ZN3PDE10numGrids_xEb
	.text
# mark_begin;
       .align    16,0x90
	.globl _ZN3PDE10numGrids_xEb
# --- PDE::numGrids_x(PDE *, bool)
_ZN3PDE10numGrids_xEb:
# parameter 1: %rdi
# parameter 2: %esi
..B4.1:                         # Preds ..B4.0
                                # Execution count [1.00e+00]
	.cfi_startproc
	.cfi_personality 0x3,__gxx_personality_v0
..___tag_value__ZN3PDE10numGrids_xEb.10:
..L11:
                                                         #34.1
        xorl      %edx, %edx                                    #36.21
        movl      $2, %eax                                      #36.21
        testb     %sil, %sil                                    #36.21
        cmove     %eax, %edx                                    #36.21
        movl      64(%rdi), %eax                                #36.13
        subl      %edx, %eax                                    #36.13
        ret                                                     #36.21
        .align    16,0x90
                                # LOE
	.cfi_endproc
# mark_end;
	.type	_ZN3PDE10numGrids_xEb,@function
	.size	_ZN3PDE10numGrids_xEb,.-_ZN3PDE10numGrids_xEb
	.data
# -- End  _ZN3PDE10numGrids_xEb
	.text
# -- Begin  _ZN3PDE10numGrids_yEb
	.text
# mark_begin;
       .align    16,0x90
	.globl _ZN3PDE10numGrids_yEb
# --- PDE::numGrids_y(PDE *, bool)
_ZN3PDE10numGrids_yEb:
# parameter 1: %rdi
# parameter 2: %esi
..B5.1:                         # Preds ..B5.0
                                # Execution count [1.00e+00]
	.cfi_startproc
	.cfi_personality 0x3,__gxx_personality_v0
..___tag_value__ZN3PDE10numGrids_yEb.13:
..L14:
                                                         #40.1
        xorl      %edx, %edx                                    #42.21
        movl      $2, %eax                                      #42.21
        testb     %sil, %sil                                    #42.21
        cmove     %eax, %edx                                    #42.21
        movl      68(%rdi), %eax                                #42.13
        subl      %edx, %eax                                    #42.13
        ret                                                     #42.21
        .align    16,0x90
                                # LOE
	.cfi_endproc
# mark_end;
	.type	_ZN3PDE10numGrids_yEb,@function
	.size	_ZN3PDE10numGrids_yEb,.-_ZN3PDE10numGrids_yEb
	.data
# -- End  _ZN3PDE10numGrids_yEb
	.text
# -- Begin  _ZN3PDE13applyBoundaryEP4Grid
	.text
# mark_begin;
       .align    16,0x90
	.globl _ZN3PDE13applyBoundaryEP4Grid
# --- PDE::applyBoundary(PDE *, Grid *)
_ZN3PDE13applyBoundaryEP4Grid:
# parameter 1: %rdi
# parameter 2: %rsi
..B6.1:                         # Preds ..B6.0
                                # Execution count [1.00e+00]
	.cfi_startproc
	.cfi_personality 0x3,__gxx_personality_v0
	.cfi_lsda 0xb, _ZN3PDE13applyBoundaryEP4Grid$$LSDA
..___tag_value__ZN3PDE13applyBoundaryEP4Grid.24:
..L25:
                                                         #56.1
        pushq     %r13                                          #56.1
	.cfi_def_cfa_offset 16
	.cfi_offset 13, -16
        pushq     %r15                                          #56.1
	.cfi_def_cfa_offset 24
	.cfi_offset 15, -24
        subq      $168, %rsp                                    #56.1
	.cfi_def_cfa_offset 192
        movq      %rdi, %r13                                    #56.1
        movq      %rsi, %r15                                    #56.1
        cmpl      $0, 8(%r13)                                   #60.25
        jne       ..B6.6        # Prob 78%                      #60.25
                                # LOE rbx rbp r12 r13 r14 r15
..B6.2:                         # Preds ..B6.1
                                # Execution count [2.62e-02]
        movq      24(%r13), %rax                                #61.25
        movl      $24, %edi                                     #61.25
        movq      80(%r13), %rdx                                #61.25
        movq      72(%r13), %rcx                                #61.25
        movq      %rax, 40(%rsp)                                #61.25
        movq      %rdx, 48(%rsp)                                #61.25
        movq      %rcx, 56(%rsp)                                #61.25
        movq      $0, 24(%rsp)                                  #61.9
..___tag_value__ZN3PDE13applyBoundaryEP4Grid.31:
#       operator new(std::size_t)
        call      _Znwm                                         #61.25
..___tag_value__ZN3PDE13applyBoundaryEP4Grid.32:
                                # LOE rax rbx rbp r12 r13 r14 r15
..B6.3:                         # Preds ..B6.2
                                # Execution count [2.62e-02]
        movq      %rax, %rdx                                    #61.25
                                # LOE rdx rbx rbp r12 r13 r14 r15
..B6.4:                         # Preds ..B6.3
                                # Execution count [2.20e-01]
        movq      40(%rsp), %rax                                #61.25
        movq      %r15, %rdi                                    #61.12
        movq      48(%rsp), %rcx                                #61.25
        lea       8(%rsp), %rsi                                 #61.12
        movq      48(%rsi), %r8                                 #61.25
        movq      %rax, (%rdx)                                  #61.25
        movq      %rcx, 8(%rdx)                                 #61.25
        movq      %r8, 16(%rdx)                                 #61.25
        movq      %rdx, (%rsi)                                  #61.25
        xorl      %edx, %edx                                    #61.12
        movq      $_ZNSt17_Function_handlerIFdiiESt5_BindIFPFdiiddESt12_PlaceholderILi1EES4_ILi2EEddEEE9_M_invokeERKSt9_Any_dataii, 24(%rsi) #61.9
        movq      $_ZNSt14_Function_base13_Base_managerISt5_BindIFPFdiiddESt12_PlaceholderILi1EES4_ILi2EEddEEE10_M_managerERSt9_Any_dataRKSA_St18_Manager_operation, 16(%rsi) #61.9
..___tag_value__ZN3PDE13applyBoundaryEP4Grid.33:
#       Grid::fillBoundary(Grid *, std::function<double (int, int)> *, Direction)
        call      _ZN4Grid12fillBoundaryESt8functionIFdiiEE9Direction #61.12
..___tag_value__ZN3PDE13applyBoundaryEP4Grid.34:
                                # LOE rbx rbp r12 r13 r14 r15
..B6.5:                         # Preds ..B6.4
                                # Execution count [2.20e-01]
        lea       8(%rsp), %rdi                                 #61.12
..___tag_value__ZN3PDE13applyBoundaryEP4Grid.35:
#       std::_Function_base::~_Function_base(std::_Function_base *)
        call      _ZNSt14_Function_baseD1Ev                     #61.12
..___tag_value__ZN3PDE13applyBoundaryEP4Grid.36:
                                # LOE rbx rbp r12 r13 r14 r15
..B6.6:                         # Preds ..B6.1 ..B6.5
                                # Execution count [1.00e+00]
        cmpl      $0, 12(%r13)                                  #63.25
        jne       ..B6.11       # Prob 78%                      #63.25
                                # LOE rbx rbp r12 r13 r14 r15
..B6.7:                         # Preds ..B6.6
                                # Execution count [2.62e-02]
        movq      32(%r13), %rax                                #64.25
        movl      $24, %edi                                     #64.25
        movq      80(%r13), %rdx                                #64.25
        movq      72(%r13), %rcx                                #64.25
        movq      %rax, 72(%rsp)                                #64.25
        movq      %rdx, 80(%rsp)                                #64.25
        movq      %rcx, 88(%rsp)                                #64.25
        movq      $0, 56(%rsp)                                  #64.9
..___tag_value__ZN3PDE13applyBoundaryEP4Grid.37:
#       operator new(std::size_t)
        call      _Znwm                                         #64.25
..___tag_value__ZN3PDE13applyBoundaryEP4Grid.38:
                                # LOE rax rbx rbp r12 r13 r14 r15
..B6.8:                         # Preds ..B6.7
                                # Execution count [2.62e-02]
        movq      %rax, %rdx                                    #64.25
                                # LOE rdx rbx rbp r12 r13 r14 r15
..B6.9:                         # Preds ..B6.8
                                # Execution count [2.20e-01]
        movq      72(%rsp), %rax                                #64.25
        movq      %r15, %rdi                                    #64.12
        movq      80(%rsp), %rcx                                #64.25
        lea       40(%rsp), %rsi                                #64.12
        movq      48(%rsi), %r8                                 #64.25
        movq      %rax, (%rdx)                                  #64.25
        movq      %rcx, 8(%rdx)                                 #64.25
        movq      %r8, 16(%rdx)                                 #64.25
        movq      %rdx, (%rsi)                                  #64.25
        movl      $1, %edx                                      #64.12
        movq      $_ZNSt17_Function_handlerIFdiiESt5_BindIFPFdiiddESt12_PlaceholderILi1EES4_ILi2EEddEEE9_M_invokeERKSt9_Any_dataii, 24(%rsi) #64.9
        movq      $_ZNSt14_Function_base13_Base_managerISt5_BindIFPFdiiddESt12_PlaceholderILi1EES4_ILi2EEddEEE10_M_managerERSt9_Any_dataRKSA_St18_Manager_operation, 16(%rsi) #64.9
..___tag_value__ZN3PDE13applyBoundaryEP4Grid.39:
#       Grid::fillBoundary(Grid *, std::function<double (int, int)> *, Direction)
        call      _ZN4Grid12fillBoundaryESt8functionIFdiiEE9Direction #64.12
..___tag_value__ZN3PDE13applyBoundaryEP4Grid.40:
                                # LOE rbx rbp r12 r13 r14 r15
..B6.10:                        # Preds ..B6.9
                                # Execution count [2.20e-01]
        lea       40(%rsp), %rdi                                #64.12
..___tag_value__ZN3PDE13applyBoundaryEP4Grid.41:
#       std::_Function_base::~_Function_base(std::_Function_base *)
        call      _ZNSt14_Function_baseD1Ev                     #64.12
..___tag_value__ZN3PDE13applyBoundaryEP4Grid.42:
                                # LOE rbx rbp r12 r13 r14 r15
..B6.11:                        # Preds ..B6.6 ..B6.10
                                # Execution count [1.00e+00]
        cmpl      $0, 16(%r13)                                  #66.24
        jne       ..B6.16       # Prob 78%                      #66.24
                                # LOE rbx rbp r12 r13 r14 r15
..B6.12:                        # Preds ..B6.11
                                # Execution count [2.62e-02]
        movq      40(%r13), %rax                                #67.25
        movl      $24, %edi                                     #67.25
        movq      80(%r13), %rdx                                #67.25
        movq      72(%r13), %rcx                                #67.25
        movq      %rax, 104(%rsp)                               #67.25
        movq      %rdx, 112(%rsp)                               #67.25
        movq      %rcx, 120(%rsp)                               #67.25
        movq      $0, 88(%rsp)                                  #67.9
..___tag_value__ZN3PDE13applyBoundaryEP4Grid.43:
#       operator new(std::size_t)
        call      _Znwm                                         #67.25
..___tag_value__ZN3PDE13applyBoundaryEP4Grid.44:
                                # LOE rax rbx rbp r12 r13 r14 r15
..B6.13:                        # Preds ..B6.12
                                # Execution count [2.62e-02]
        movq      %rax, %rdx                                    #67.25
                                # LOE rdx rbx rbp r12 r13 r14 r15
..B6.14:                        # Preds ..B6.13
                                # Execution count [2.20e-01]
        movq      104(%rsp), %rax                               #67.25
        movq      %r15, %rdi                                    #67.12
        movq      112(%rsp), %rcx                               #67.25
        lea       72(%rsp), %rsi                                #67.12
        movq      48(%rsi), %r8                                 #67.25
        movq      %rax, (%rdx)                                  #67.25
        movq      %rcx, 8(%rdx)                                 #67.25
        movq      %r8, 16(%rdx)                                 #67.25
        movq      %rdx, (%rsi)                                  #67.25
        movl      $2, %edx                                      #67.12
        movq      $_ZNSt17_Function_handlerIFdiiESt5_BindIFPFdiiddESt12_PlaceholderILi1EES4_ILi2EEddEEE9_M_invokeERKSt9_Any_dataii, 24(%rsi) #67.9
        movq      $_ZNSt14_Function_base13_Base_managerISt5_BindIFPFdiiddESt12_PlaceholderILi1EES4_ILi2EEddEEE10_M_managerERSt9_Any_dataRKSA_St18_Manager_operation, 16(%rsi) #67.9
..___tag_value__ZN3PDE13applyBoundaryEP4Grid.45:
#       Grid::fillBoundary(Grid *, std::function<double (int, int)> *, Direction)
        call      _ZN4Grid12fillBoundaryESt8functionIFdiiEE9Direction #67.12
..___tag_value__ZN3PDE13applyBoundaryEP4Grid.46:
                                # LOE rbx rbp r12 r13 r14 r15
..B6.15:                        # Preds ..B6.14
                                # Execution count [2.20e-01]
        lea       72(%rsp), %rdi                                #67.12
..___tag_value__ZN3PDE13applyBoundaryEP4Grid.47:
#       std::_Function_base::~_Function_base(std::_Function_base *)
        call      _ZNSt14_Function_baseD1Ev                     #67.12
..___tag_value__ZN3PDE13applyBoundaryEP4Grid.48:
                                # LOE rbx rbp r12 r13 r14 r15
..B6.16:                        # Preds ..B6.11 ..B6.15
                                # Execution count [1.00e+00]
        cmpl      $0, 20(%r13)                                  #69.24
        jne       ..B6.21       # Prob 57%                      #69.24
                                # LOE rbx rbp r12 r13 r14 r15
..B6.17:                        # Preds ..B6.16
                                # Execution count [5.01e-02]
        movq      48(%r13), %rax                                #70.25
        movl      $24, %edi                                     #70.25
        movq      80(%r13), %rdx                                #70.25
        movq      72(%r13), %rcx                                #70.25
        movq      %rax, 136(%rsp)                               #70.25
        movq      %rdx, 144(%rsp)                               #70.25
        movq      %rcx, 152(%rsp)                               #70.25
        movq      $0, 120(%rsp)                                 #70.9
..___tag_value__ZN3PDE13applyBoundaryEP4Grid.49:
#       operator new(std::size_t)
        call      _Znwm                                         #70.25
..___tag_value__ZN3PDE13applyBoundaryEP4Grid.50:
                                # LOE rax rbx rbp r12 r14 r15
..B6.18:                        # Preds ..B6.17
                                # Execution count [5.01e-02]
        movq      %rax, %rsi                                    #70.25
                                # LOE rbx rbp rsi r12 r14 r15
..B6.19:                        # Preds ..B6.18
                                # Execution count [4.20e-01]
        movq      136(%rsp), %rax                               #70.25
        movq      %r15, %rdi                                    #70.12
        movq      144(%rsp), %rdx                               #70.25
        movq      152(%rsp), %rcx                               #70.25
        movq      %rax, (%rsi)                                  #70.25
        movq      %rdx, 8(%rsi)                                 #70.25
        movl      $3, %edx                                      #70.12
        movq      %rcx, 16(%rsi)                                #70.25
        movq      %rsi, 104(%rsp)                               #70.25
        lea       104(%rsp), %rsi                               #70.12
        movq      $_ZNSt17_Function_handlerIFdiiESt5_BindIFPFdiiddESt12_PlaceholderILi1EES4_ILi2EEddEEE9_M_invokeERKSt9_Any_dataii, 24(%rsi) #70.9
        movq      $_ZNSt14_Function_base13_Base_managerISt5_BindIFPFdiiddESt12_PlaceholderILi1EES4_ILi2EEddEEE10_M_managerERSt9_Any_dataRKSA_St18_Manager_operation, 16(%rsi) #70.9
..___tag_value__ZN3PDE13applyBoundaryEP4Grid.51:
#       Grid::fillBoundary(Grid *, std::function<double (int, int)> *, Direction)
        call      _ZN4Grid12fillBoundaryESt8functionIFdiiEE9Direction #70.12
..___tag_value__ZN3PDE13applyBoundaryEP4Grid.52:
                                # LOE rbx rbp r12 r14
..B6.20:                        # Preds ..B6.19
                                # Execution count [4.20e-01]
        lea       104(%rsp), %rdi                               #70.12
..___tag_value__ZN3PDE13applyBoundaryEP4Grid.53:
#       std::_Function_base::~_Function_base(std::_Function_base *)
        call      _ZNSt14_Function_baseD1Ev                     #70.12
..___tag_value__ZN3PDE13applyBoundaryEP4Grid.54:
                                # LOE rbx rbp r12 r14
..B6.21:                        # Preds ..B6.16 ..B6.20
                                # Execution count [1.00e+00]
        addq      $168, %rsp                                    #72.1
	.cfi_def_cfa_offset 24
	.cfi_restore 15
        popq      %r15                                          #72.1
	.cfi_def_cfa_offset 16
	.cfi_restore 13
        popq      %r13                                          #72.1
	.cfi_def_cfa_offset 8
        ret                                                     #72.1
	.cfi_def_cfa_offset 192
	.cfi_offset 13, -16
	.cfi_offset 15, -24
                                # LOE
..___tag_value__ZN3PDE13applyBoundaryEP4Grid.23:
..B6.22:                        # Preds ..B6.19
                                # Execution count [0.00e+00]: Infreq
        movq      %rax, (%rsp)                                  #70.25
                                # LOE rbx rbp r12 r14
..B6.23:                        # Preds ..B6.22
                                # Execution count [0.00e+00]: Infreq
        lea       104(%rsp), %rdi                               #70.25
..___tag_value__ZN3PDE13applyBoundaryEP4Grid.63:
#       std::function<double (int, int)>::~function(std::function<double (int, int)> *)
        call      _ZNSt8functionIFdiiEED1Ev                     #70.25
..___tag_value__ZN3PDE13applyBoundaryEP4Grid.64:
                                # LOE rbx rbp r12 r14
..B6.24:                        # Preds ..B6.44 ..B6.41 ..B6.38 ..B6.35 ..B6.32
                                #       ..B6.29 ..B6.26 ..B6.23
                                # Execution count [0.00e+00]: Infreq
        movq      (%rsp), %rdi                                  #70.25
..___tag_value__ZN3PDE13applyBoundaryEP4Grid.65:
        call      _Unwind_Resume                                #70.25
..___tag_value__ZN3PDE13applyBoundaryEP4Grid.66:
                                # LOE
..___tag_value__ZN3PDE13applyBoundaryEP4Grid.22:
..B6.25:                        # Preds ..B6.17
                                # Execution count [0.00e+00]: Infreq
        movq      %rax, (%rsp)                                  #70.25
                                # LOE rbx rbp r12 r14
..B6.26:                        # Preds ..B6.25
                                # Execution count [0.00e+00]: Infreq
        lea       104(%rsp), %rdi                               #70.25
..___tag_value__ZN3PDE13applyBoundaryEP4Grid.67:
#       std::_Function_base::~_Function_base(std::_Function_base *const)
        call      _ZNSt14_Function_baseD2Ev                     #70.25
..___tag_value__ZN3PDE13applyBoundaryEP4Grid.68:
        jmp       ..B6.24       # Prob 100%                     #70.25
                                # LOE rbx rbp r12 r14
..___tag_value__ZN3PDE13applyBoundaryEP4Grid.21:
..B6.28:                        # Preds ..B6.14
                                # Execution count [0.00e+00]: Infreq
        movq      %rax, (%rsp)                                  #67.25
                                # LOE rbx rbp r12 r14
..B6.29:                        # Preds ..B6.28
                                # Execution count [0.00e+00]: Infreq
        lea       72(%rsp), %rdi                                #67.25
..___tag_value__ZN3PDE13applyBoundaryEP4Grid.69:
#       std::function<double (int, int)>::~function(std::function<double (int, int)> *)
        call      _ZNSt8functionIFdiiEED1Ev                     #67.25
..___tag_value__ZN3PDE13applyBoundaryEP4Grid.70:
        jmp       ..B6.24       # Prob 100%                     #67.25
                                # LOE rbx rbp r12 r14
..___tag_value__ZN3PDE13applyBoundaryEP4Grid.20:
..B6.31:                        # Preds ..B6.12
                                # Execution count [0.00e+00]: Infreq
        movq      %rax, (%rsp)                                  #67.25
                                # LOE rbx rbp r12 r14
..B6.32:                        # Preds ..B6.31
                                # Execution count [0.00e+00]: Infreq
        lea       72(%rsp), %rdi                                #67.25
..___tag_value__ZN3PDE13applyBoundaryEP4Grid.71:
#       std::_Function_base::~_Function_base(std::_Function_base *const)
        call      _ZNSt14_Function_baseD2Ev                     #67.25
..___tag_value__ZN3PDE13applyBoundaryEP4Grid.72:
        jmp       ..B6.24       # Prob 100%                     #67.25
                                # LOE rbx rbp r12 r14
..___tag_value__ZN3PDE13applyBoundaryEP4Grid.19:
..B6.34:                        # Preds ..B6.9
                                # Execution count [0.00e+00]: Infreq
        movq      %rax, (%rsp)                                  #64.25
                                # LOE rbx rbp r12 r14
..B6.35:                        # Preds ..B6.34
                                # Execution count [0.00e+00]: Infreq
        lea       40(%rsp), %rdi                                #64.25
..___tag_value__ZN3PDE13applyBoundaryEP4Grid.73:
#       std::function<double (int, int)>::~function(std::function<double (int, int)> *)
        call      _ZNSt8functionIFdiiEED1Ev                     #64.25
..___tag_value__ZN3PDE13applyBoundaryEP4Grid.74:
        jmp       ..B6.24       # Prob 100%                     #64.25
                                # LOE rbx rbp r12 r14
..___tag_value__ZN3PDE13applyBoundaryEP4Grid.18:
..B6.37:                        # Preds ..B6.7
                                # Execution count [0.00e+00]: Infreq
        movq      %rax, (%rsp)                                  #64.25
                                # LOE rbx rbp r12 r14
..B6.38:                        # Preds ..B6.37
                                # Execution count [0.00e+00]: Infreq
        lea       40(%rsp), %rdi                                #64.25
..___tag_value__ZN3PDE13applyBoundaryEP4Grid.75:
#       std::_Function_base::~_Function_base(std::_Function_base *const)
        call      _ZNSt14_Function_baseD2Ev                     #64.25
..___tag_value__ZN3PDE13applyBoundaryEP4Grid.76:
        jmp       ..B6.24       # Prob 100%                     #64.25
                                # LOE rbx rbp r12 r14
..___tag_value__ZN3PDE13applyBoundaryEP4Grid.17:
..B6.40:                        # Preds ..B6.4
                                # Execution count [0.00e+00]: Infreq
        movq      %rax, (%rsp)                                  #61.25
                                # LOE rbx rbp r12 r14
..B6.41:                        # Preds ..B6.40
                                # Execution count [0.00e+00]: Infreq
        lea       8(%rsp), %rdi                                 #61.25
..___tag_value__ZN3PDE13applyBoundaryEP4Grid.77:
#       std::function<double (int, int)>::~function(std::function<double (int, int)> *)
        call      _ZNSt8functionIFdiiEED1Ev                     #61.25
..___tag_value__ZN3PDE13applyBoundaryEP4Grid.78:
        jmp       ..B6.24       # Prob 100%                     #61.25
                                # LOE rbx rbp r12 r14
..___tag_value__ZN3PDE13applyBoundaryEP4Grid.16:
..B6.43:                        # Preds ..B6.2
                                # Execution count [0.00e+00]: Infreq
        movq      %rax, (%rsp)                                  #61.25
                                # LOE rbx rbp r12 r14
..B6.44:                        # Preds ..B6.43
                                # Execution count [0.00e+00]: Infreq
        lea       8(%rsp), %rdi                                 #61.25
..___tag_value__ZN3PDE13applyBoundaryEP4Grid.79:
#       std::_Function_base::~_Function_base(std::_Function_base *const)
        call      _ZNSt14_Function_baseD2Ev                     #61.25
..___tag_value__ZN3PDE13applyBoundaryEP4Grid.80:
        jmp       ..B6.24       # Prob 100%                     #61.25
        .align    16,0x90
                                # LOE rbx rbp r12 r14
	.cfi_endproc
# mark_end;
	.type	_ZN3PDE13applyBoundaryEP4Grid,@function
	.size	_ZN3PDE13applyBoundaryEP4Grid,.-_ZN3PDE13applyBoundaryEP4Grid
	.section .gcc_except_table, "a"
	.align 4
_ZN3PDE13applyBoundaryEP4Grid$$LSDA:
	.byte	255
	.byte	0
	.uleb128	..___tag_value__ZN3PDE13applyBoundaryEP4Grid.85 - ..___tag_value__ZN3PDE13applyBoundaryEP4Grid.84
..___tag_value__ZN3PDE13applyBoundaryEP4Grid.84:
	.byte	1
	.uleb128	..___tag_value__ZN3PDE13applyBoundaryEP4Grid.83 - ..___tag_value__ZN3PDE13applyBoundaryEP4Grid.82
..___tag_value__ZN3PDE13applyBoundaryEP4Grid.82:
	.uleb128	..___tag_value__ZN3PDE13applyBoundaryEP4Grid.31 - ..___tag_value__ZN3PDE13applyBoundaryEP4Grid.24
	.uleb128	..___tag_value__ZN3PDE13applyBoundaryEP4Grid.32 - ..___tag_value__ZN3PDE13applyBoundaryEP4Grid.31
	.uleb128	..___tag_value__ZN3PDE13applyBoundaryEP4Grid.16 - ..___tag_value__ZN3PDE13applyBoundaryEP4Grid.24
	.byte	0
	.uleb128	..___tag_value__ZN3PDE13applyBoundaryEP4Grid.33 - ..___tag_value__ZN3PDE13applyBoundaryEP4Grid.24
	.uleb128	..___tag_value__ZN3PDE13applyBoundaryEP4Grid.34 - ..___tag_value__ZN3PDE13applyBoundaryEP4Grid.33
	.uleb128	..___tag_value__ZN3PDE13applyBoundaryEP4Grid.17 - ..___tag_value__ZN3PDE13applyBoundaryEP4Grid.24
	.byte	0
	.uleb128	..___tag_value__ZN3PDE13applyBoundaryEP4Grid.35 - ..___tag_value__ZN3PDE13applyBoundaryEP4Grid.24
	.uleb128	..___tag_value__ZN3PDE13applyBoundaryEP4Grid.36 - ..___tag_value__ZN3PDE13applyBoundaryEP4Grid.35
	.byte	0
	.byte	0
	.uleb128	..___tag_value__ZN3PDE13applyBoundaryEP4Grid.37 - ..___tag_value__ZN3PDE13applyBoundaryEP4Grid.24
	.uleb128	..___tag_value__ZN3PDE13applyBoundaryEP4Grid.38 - ..___tag_value__ZN3PDE13applyBoundaryEP4Grid.37
	.uleb128	..___tag_value__ZN3PDE13applyBoundaryEP4Grid.18 - ..___tag_value__ZN3PDE13applyBoundaryEP4Grid.24
	.byte	0
	.uleb128	..___tag_value__ZN3PDE13applyBoundaryEP4Grid.39 - ..___tag_value__ZN3PDE13applyBoundaryEP4Grid.24
	.uleb128	..___tag_value__ZN3PDE13applyBoundaryEP4Grid.40 - ..___tag_value__ZN3PDE13applyBoundaryEP4Grid.39
	.uleb128	..___tag_value__ZN3PDE13applyBoundaryEP4Grid.19 - ..___tag_value__ZN3PDE13applyBoundaryEP4Grid.24
	.byte	0
	.uleb128	..___tag_value__ZN3PDE13applyBoundaryEP4Grid.41 - ..___tag_value__ZN3PDE13applyBoundaryEP4Grid.24
	.uleb128	..___tag_value__ZN3PDE13applyBoundaryEP4Grid.42 - ..___tag_value__ZN3PDE13applyBoundaryEP4Grid.41
	.byte	0
	.byte	0
	.uleb128	..___tag_value__ZN3PDE13applyBoundaryEP4Grid.43 - ..___tag_value__ZN3PDE13applyBoundaryEP4Grid.24
	.uleb128	..___tag_value__ZN3PDE13applyBoundaryEP4Grid.44 - ..___tag_value__ZN3PDE13applyBoundaryEP4Grid.43
	.uleb128	..___tag_value__ZN3PDE13applyBoundaryEP4Grid.20 - ..___tag_value__ZN3PDE13applyBoundaryEP4Grid.24
	.byte	0
	.uleb128	..___tag_value__ZN3PDE13applyBoundaryEP4Grid.45 - ..___tag_value__ZN3PDE13applyBoundaryEP4Grid.24
	.uleb128	..___tag_value__ZN3PDE13applyBoundaryEP4Grid.46 - ..___tag_value__ZN3PDE13applyBoundaryEP4Grid.45
	.uleb128	..___tag_value__ZN3PDE13applyBoundaryEP4Grid.21 - ..___tag_value__ZN3PDE13applyBoundaryEP4Grid.24
	.byte	0
	.uleb128	..___tag_value__ZN3PDE13applyBoundaryEP4Grid.47 - ..___tag_value__ZN3PDE13applyBoundaryEP4Grid.24
	.uleb128	..___tag_value__ZN3PDE13applyBoundaryEP4Grid.48 - ..___tag_value__ZN3PDE13applyBoundaryEP4Grid.47
	.byte	0
	.byte	0
	.uleb128	..___tag_value__ZN3PDE13applyBoundaryEP4Grid.49 - ..___tag_value__ZN3PDE13applyBoundaryEP4Grid.24
	.uleb128	..___tag_value__ZN3PDE13applyBoundaryEP4Grid.50 - ..___tag_value__ZN3PDE13applyBoundaryEP4Grid.49
	.uleb128	..___tag_value__ZN3PDE13applyBoundaryEP4Grid.22 - ..___tag_value__ZN3PDE13applyBoundaryEP4Grid.24
	.byte	0
	.uleb128	..___tag_value__ZN3PDE13applyBoundaryEP4Grid.51 - ..___tag_value__ZN3PDE13applyBoundaryEP4Grid.24
	.uleb128	..___tag_value__ZN3PDE13applyBoundaryEP4Grid.52 - ..___tag_value__ZN3PDE13applyBoundaryEP4Grid.51
	.uleb128	..___tag_value__ZN3PDE13applyBoundaryEP4Grid.23 - ..___tag_value__ZN3PDE13applyBoundaryEP4Grid.24
	.byte	0
	.uleb128	..___tag_value__ZN3PDE13applyBoundaryEP4Grid.53 - ..___tag_value__ZN3PDE13applyBoundaryEP4Grid.24
	.uleb128	..___tag_value__ZN3PDE13applyBoundaryEP4Grid.54 - ..___tag_value__ZN3PDE13applyBoundaryEP4Grid.53
	.byte	0
	.byte	0
	.uleb128	..___tag_value__ZN3PDE13applyBoundaryEP4Grid.65 - ..___tag_value__ZN3PDE13applyBoundaryEP4Grid.24
	.uleb128	..___tag_value__ZN3PDE13applyBoundaryEP4Grid.66 - ..___tag_value__ZN3PDE13applyBoundaryEP4Grid.65
	.byte	0
	.byte	0
..___tag_value__ZN3PDE13applyBoundaryEP4Grid.83:
	.long	0x00000000,0x00000000
..___tag_value__ZN3PDE13applyBoundaryEP4Grid.85:
	.data
# -- End  _ZN3PDE13applyBoundaryEP4Grid
	.section .text._ZNSt14_Function_baseD1Ev, "xaG",@progbits,_ZNSt14_Function_baseD1Ev,comdat
..TXTST1:
# -- Begin  _ZNSt14_Function_baseD1Ev
	.section .text._ZNSt14_Function_baseD1Ev, "xaG",@progbits,_ZNSt14_Function_baseD1Ev,comdat
# mark_begin;
       .align    16,0x90
	.weak _ZNSt14_Function_baseD1Ev
# --- std::_Function_base::~_Function_base(std::_Function_base *)
_ZNSt14_Function_baseD1Ev:
# parameter 1: %rdi
..B7.1:                         # Preds ..B7.0
                                # Execution count [1.00e+00]
	.cfi_startproc
	.cfi_personality 0x3,__gxx_personality_v0
	.cfi_lsda 0xb, _ZNSt14_Function_baseD1Ev$$LSDA
..___tag_value__ZNSt14_Function_baseD1Ev.87:
..L88:
                                                         #2028.5
        pushq     %rsi                                          #2028.5
	.cfi_def_cfa_offset 16
        movq      16(%rdi), %rax                                #2029.11
        testq     %rax, %rax                                    #2029.11
        je        ..B7.4        # Prob 15%                      #2029.11
                                # LOE rax rbx rbp rdi r12 r13 r14 r15
..B7.2:                         # Preds ..B7.1
                                # Execution count [8.42e-01]
        movq      %rdi, %rsi                                    #2030.2
        movl      $3, %edx                                      #2030.2
..___tag_value__ZNSt14_Function_baseD1Ev.90:
        call      *%rax                                         #2030.2
..___tag_value__ZNSt14_Function_baseD1Ev.91:
                                # LOE rbx rbp r12 r13 r14 r15
..B7.4:                         # Preds ..B7.2 ..B7.1
                                # Execution count [1.00e+00]
        popq      %rcx                                          #2031.5
	.cfi_def_cfa_offset 8
        ret                                                     #2031.5
	.cfi_def_cfa_offset 16
                                # LOE
..___tag_value__ZNSt14_Function_baseD1Ev.86:
..B7.5:                         # Preds ..B7.2
                                # Execution count [0.00e+00]: Infreq
        movq      %rax, (%rsp)                                  #2028.5
                                # LOE rbx rbp r12 r13 r14 r15
..B7.6:                         # Preds ..B7.5
                                # Execution count [0.00e+00]: Infreq
        xorl      %eax, %eax                                    #2028.5
        movq      (%rsp), %rdi                                  #2028.5
..___tag_value__ZNSt14_Function_baseD1Ev.94:
        call      __cxa_call_unexpected                         #2028.5
..___tag_value__ZNSt14_Function_baseD1Ev.95:
                                # LOE rbx rbp r12 r13 r14 r15
..B7.7:                         # Preds ..B7.6
                                # Execution count [0.00e+00]: Infreq
        movq      (%rsp), %rdi                                  #2028.5
..___tag_value__ZNSt14_Function_baseD1Ev.96:
        call      _Unwind_Resume                                #2028.5
..___tag_value__ZNSt14_Function_baseD1Ev.97:
        .align    16,0x90
                                # LOE
	.cfi_endproc
# mark_end;
	.type	_ZNSt14_Function_baseD1Ev,@function
	.size	_ZNSt14_Function_baseD1Ev,.-_ZNSt14_Function_baseD1Ev
	.section .gcc_except_table, "a"
	.align 4
_ZNSt14_Function_baseD1Ev$$LSDA:
	.byte	255
	.byte	0
	.uleb128	..___tag_value__ZNSt14_Function_baseD1Ev.102 - ..___tag_value__ZNSt14_Function_baseD1Ev.101
..___tag_value__ZNSt14_Function_baseD1Ev.101:
	.byte	1
	.uleb128	..___tag_value__ZNSt14_Function_baseD1Ev.100 - ..___tag_value__ZNSt14_Function_baseD1Ev.99
..___tag_value__ZNSt14_Function_baseD1Ev.99:
	.uleb128	..___tag_value__ZNSt14_Function_baseD1Ev.90 - ..___tag_value__ZNSt14_Function_baseD1Ev.87
	.uleb128	..___tag_value__ZNSt14_Function_baseD1Ev.91 - ..___tag_value__ZNSt14_Function_baseD1Ev.90
	.uleb128	..___tag_value__ZNSt14_Function_baseD1Ev.86 - ..___tag_value__ZNSt14_Function_baseD1Ev.87
	.byte	1
	.uleb128	..___tag_value__ZNSt14_Function_baseD1Ev.94 - ..___tag_value__ZNSt14_Function_baseD1Ev.87
	.uleb128	..___tag_value__ZNSt14_Function_baseD1Ev.97 - ..___tag_value__ZNSt14_Function_baseD1Ev.94
	.byte	0
	.byte	0
..___tag_value__ZNSt14_Function_baseD1Ev.100:
	.byte	127
	.byte	0
	.long	0x00000000,0x00000000
..___tag_value__ZNSt14_Function_baseD1Ev.102:
	.byte	0
	.data
# -- End  _ZNSt14_Function_baseD1Ev
	.section .text._ZNSt14_Function_baseD2Ev, "xaG",@progbits,_ZNSt14_Function_baseD2Ev,comdat
..TXTST2:
# -- Begin  _ZNSt14_Function_baseD2Ev
	.section .text._ZNSt14_Function_baseD2Ev, "xaG",@progbits,_ZNSt14_Function_baseD2Ev,comdat
# mark_begin;
       .align    16,0x90
	.weak _ZNSt14_Function_baseD2Ev
# --- std::_Function_base::~_Function_base(std::_Function_base *const)
_ZNSt14_Function_baseD2Ev:
# parameter 1: %rdi
..B8.1:                         # Preds ..B8.0
                                # Execution count [1.00e+00]
	.cfi_startproc
	.cfi_personality 0x3,__gxx_personality_v0
..___tag_value__ZNSt14_Function_baseD2Ev.103:
..L104:
                                                        #2027.5
#       std::_Function_base::~_Function_base(std::_Function_base *)
        jmp       _ZNSt14_Function_baseD1Ev                     #2027.5
        .align    16,0x90
                                # LOE
	.cfi_endproc
# mark_end;
	.type	_ZNSt14_Function_baseD2Ev,@function
	.size	_ZNSt14_Function_baseD2Ev,.-_ZNSt14_Function_baseD2Ev
	.data
# -- End  _ZNSt14_Function_baseD2Ev
	.section .text._ZNSt8functionIFdiiEED1Ev, "xaG",@progbits,_ZNSt8functionIFdiiEED1Ev,comdat
..TXTST3:
# -- Begin  _ZNSt8functionIFdiiEED1Ev
	.section .text._ZNSt8functionIFdiiEED1Ev, "xaG",@progbits,_ZNSt8functionIFdiiEED1Ev,comdat
# mark_begin;
       .align    16,0x90
	.weak _ZNSt8functionIFdiiEED1Ev
# --- std::function<double (int, int)>::~function(std::function<double (int, int)> *)
_ZNSt8functionIFdiiEED1Ev:
# parameter 1: %rdi
..B9.1:                         # Preds ..B9.0
                                # Execution count [1.00e+00]
	.cfi_startproc
	.cfi_personality 0x3,__gxx_personality_v0
	.cfi_lsda 0xb, _ZNSt8functionIFdiiEED1Ev$$LSDA
..___tag_value__ZNSt8functionIFdiiEED1Ev.106:
..L107:
                                                        #1866.11
#       std::_Function_base::~_Function_base(std::_Function_base *)
        jmp       _ZNSt14_Function_baseD1Ev                     #1866.11
        .align    16,0x90
                                # LOE
	.cfi_endproc
# mark_end;
	.type	_ZNSt8functionIFdiiEED1Ev,@function
	.size	_ZNSt8functionIFdiiEED1Ev,.-_ZNSt8functionIFdiiEED1Ev
	.section .gcc_except_table, "a"
	.align 4
_ZNSt8functionIFdiiEED1Ev$$LSDA:
	.byte	255
	.byte	0
	.uleb128	..___tag_value__ZNSt8functionIFdiiEED1Ev.112 - ..___tag_value__ZNSt8functionIFdiiEED1Ev.111
..___tag_value__ZNSt8functionIFdiiEED1Ev.111:
	.byte	1
	.uleb128	..___tag_value__ZNSt8functionIFdiiEED1Ev.110 - ..___tag_value__ZNSt8functionIFdiiEED1Ev.109
..___tag_value__ZNSt8functionIFdiiEED1Ev.109:
..___tag_value__ZNSt8functionIFdiiEED1Ev.110:
	.long	0x00000000,0x00000000
..___tag_value__ZNSt8functionIFdiiEED1Ev.112:
	.data
# -- End  _ZNSt8functionIFdiiEED1Ev
	.text
# -- Begin  _ZN3PDE15refreshBoundaryEP4Grid
	.text
# mark_begin;
       .align    16,0x90
	.globl _ZN3PDE15refreshBoundaryEP4Grid
# --- PDE::refreshBoundary(PDE *, Grid *)
_ZN3PDE15refreshBoundaryEP4Grid:
# parameter 1: %rdi
# parameter 2: %rsi
..B10.1:                        # Preds ..B10.0
                                # Execution count [1.00e+00]
	.cfi_startproc
	.cfi_personality 0x3,__gxx_personality_v0
	.cfi_lsda 0xb, _ZN3PDE15refreshBoundaryEP4Grid$$LSDA
..___tag_value__ZN3PDE15refreshBoundaryEP4Grid.121:
..L122:
                                                        #76.1
        pushq     %r14                                          #76.1
	.cfi_def_cfa_offset 16
	.cfi_offset 14, -16
        pushq     %r15                                          #76.1
	.cfi_def_cfa_offset 24
	.cfi_offset 15, -24
        subq      $168, %rsp                                    #76.1
	.cfi_def_cfa_offset 192
        movq      %rdi, %r14                                    #76.1
        movq      %rsi, %r15                                    #76.1
        cmpl      $1, 8(%r14)                                   #80.25
        je        ..B10.36      # Prob 5%                       #80.25
                                # LOE rbx rbp r12 r13 r14 r15
..B10.2:                        # Preds ..B10.1 ..B10.39
                                # Execution count [1.00e+00]
        cmpl      $1, 12(%r14)                                  #83.25
        je        ..B10.26      # Prob 5%                       #83.25
                                # LOE rbx rbp r12 r13 r14 r15
..B10.3:                        # Preds ..B10.2 ..B10.29
                                # Execution count [1.00e+00]
        cmpl      $1, 16(%r14)                                  #86.24
        je        ..B10.16      # Prob 5%                       #86.24
                                # LOE rbx rbp r12 r13 r14 r15
..B10.4:                        # Preds ..B10.3 ..B10.19
                                # Execution count [1.00e+00]
        cmpl      $1, 20(%r14)                                  #89.24
        je        ..B10.6       # Prob 12%                      #89.24
                                # LOE rbx rbp r12 r13 r14 r15
..B10.5:                        # Preds ..B10.4 ..B10.9
                                # Execution count [1.00e+00]
        addq      $168, %rsp                                    #92.1
	.cfi_def_cfa_offset 24
	.cfi_restore 15
        popq      %r15                                          #92.1
	.cfi_def_cfa_offset 16
	.cfi_restore 14
        popq      %r14                                          #92.1
	.cfi_def_cfa_offset 8
        ret                                                     #92.1
	.cfi_def_cfa_offset 192
	.cfi_offset 14, -16
	.cfi_offset 15, -24
                                # LOE
..B10.6:                        # Preds ..B10.4
                                # Execution count [1.45e-02]: Infreq
        movq      48(%r14), %rax                                #90.23
        movl      $24, %edi                                     #90.23
        movq      80(%r14), %rdx                                #90.23
        movq      72(%r14), %rcx                                #90.23
        movq      %rax, 136(%rsp)                               #90.23
        movq      %rdx, 144(%rsp)                               #90.23
        movq      %rcx, 152(%rsp)                               #90.23
        movq      $0, 120(%rsp)                                 #90.9
..___tag_value__ZN3PDE15refreshBoundaryEP4Grid.136:
#       operator new(std::size_t)
        call      _Znwm                                         #90.23
..___tag_value__ZN3PDE15refreshBoundaryEP4Grid.137:
                                # LOE rax rbx rbp r12 r13 r15
..B10.7:                        # Preds ..B10.6
                                # Execution count [1.45e-02]: Infreq
        movq      %rax, %rsi                                    #90.23
                                # LOE rbx rbp rsi r12 r13 r15
..B10.8:                        # Preds ..B10.7
                                # Execution count [1.21e-01]: Infreq
        movq      136(%rsp), %rax                               #90.23
        movq      %r15, %rdi                                    #90.12
        movq      144(%rsp), %rdx                               #90.23
        movq      152(%rsp), %rcx                               #90.23
        movq      %rax, (%rsi)                                  #90.23
        movq      %rdx, 8(%rsi)                                 #90.23
        movl      $3, %edx                                      #90.12
        movq      %rcx, 16(%rsi)                                #90.23
        movq      %rsi, 104(%rsp)                               #90.23
        lea       104(%rsp), %rsi                               #90.12
        movq      $_ZNSt17_Function_handlerIFdiiESt5_BindIFPFdiiddESt12_PlaceholderILi1EES4_ILi2EEddEEE9_M_invokeERKSt9_Any_dataii, 24(%rsi) #90.9
        movq      $_ZNSt14_Function_base13_Base_managerISt5_BindIFPFdiiddESt12_PlaceholderILi1EES4_ILi2EEddEEE10_M_managerERSt9_Any_dataRKSA_St18_Manager_operation, 16(%rsi) #90.9
..___tag_value__ZN3PDE15refreshBoundaryEP4Grid.138:
#       Grid::copyToHalo(Grid *, std::function<double (int, int)> *, Direction)
        call      _ZN4Grid10copyToHaloESt8functionIFdiiEE9Direction #90.12
..___tag_value__ZN3PDE15refreshBoundaryEP4Grid.139:
                                # LOE rbx rbp r12 r13
..B10.9:                        # Preds ..B10.8
                                # Execution count [1.21e-01]: Infreq
        lea       104(%rsp), %rdi                               #90.12
..___tag_value__ZN3PDE15refreshBoundaryEP4Grid.140:
#       std::_Function_base::~_Function_base(std::_Function_base *)
        call      _ZNSt14_Function_baseD1Ev                     #90.12
..___tag_value__ZN3PDE15refreshBoundaryEP4Grid.141:
        jmp       ..B10.5       # Prob 100%                     #90.12
                                # LOE rbx rbp r12 r13
..___tag_value__ZN3PDE15refreshBoundaryEP4Grid.120:
..B10.10:                       # Preds ..B10.8
                                # Execution count [0.00e+00]: Infreq
        movq      %rax, (%rsp)                                  #90.23
                                # LOE rbx rbp r12 r13
..B10.11:                       # Preds ..B10.10
                                # Execution count [0.00e+00]: Infreq
        lea       104(%rsp), %rdi                               #90.23
..___tag_value__ZN3PDE15refreshBoundaryEP4Grid.142:
#       std::function<double (int, int)>::~function(std::function<double (int, int)> *)
        call      _ZNSt8functionIFdiiEED1Ev                     #90.23
..___tag_value__ZN3PDE15refreshBoundaryEP4Grid.143:
                                # LOE rbx rbp r12 r13
..B10.12:                       # Preds ..B10.44 ..B10.41 ..B10.34 ..B10.31 ..B10.24
                                #       ..B10.21 ..B10.14 ..B10.11
                                # Execution count [0.00e+00]: Infreq
        movq      (%rsp), %rdi                                  #90.23
..___tag_value__ZN3PDE15refreshBoundaryEP4Grid.144:
        call      _Unwind_Resume                                #90.23
..___tag_value__ZN3PDE15refreshBoundaryEP4Grid.145:
                                # LOE
..___tag_value__ZN3PDE15refreshBoundaryEP4Grid.119:
..B10.13:                       # Preds ..B10.6
                                # Execution count [0.00e+00]: Infreq
        movq      %rax, (%rsp)                                  #90.23
                                # LOE rbx rbp r12 r13
..B10.14:                       # Preds ..B10.13
                                # Execution count [0.00e+00]: Infreq
        lea       104(%rsp), %rdi                               #90.23
..___tag_value__ZN3PDE15refreshBoundaryEP4Grid.146:
#       std::_Function_base::~_Function_base(std::_Function_base *const)
        call      _ZNSt14_Function_baseD2Ev                     #90.23
..___tag_value__ZN3PDE15refreshBoundaryEP4Grid.147:
        jmp       ..B10.12      # Prob 100%                     #90.23
                                # LOE rbx rbp r12 r13
..B10.16:                       # Preds ..B10.3
                                # Execution count [6.08e-03]: Infreq
        movq      40(%r14), %rax                                #87.23
        movl      $24, %edi                                     #87.23
        movq      80(%r14), %rdx                                #87.23
        movq      72(%r14), %rcx                                #87.23
        movq      %rax, 104(%rsp)                               #87.23
        movq      %rdx, 112(%rsp)                               #87.23
        movq      %rcx, 120(%rsp)                               #87.23
        movq      $0, 88(%rsp)                                  #87.9
..___tag_value__ZN3PDE15refreshBoundaryEP4Grid.148:
#       operator new(std::size_t)
        call      _Znwm                                         #87.23
..___tag_value__ZN3PDE15refreshBoundaryEP4Grid.149:
                                # LOE rax rbx rbp r12 r13 r14 r15
..B10.17:                       # Preds ..B10.16
                                # Execution count [6.08e-03]: Infreq
        movq      %rax, %rdx                                    #87.23
                                # LOE rdx rbx rbp r12 r13 r14 r15
..B10.18:                       # Preds ..B10.17
                                # Execution count [5.10e-02]: Infreq
        movq      104(%rsp), %rax                               #87.23
        movq      %r15, %rdi                                    #87.12
        movq      112(%rsp), %rcx                               #87.23
        lea       72(%rsp), %rsi                                #87.12
        movq      48(%rsi), %r8                                 #87.23
        movq      %rax, (%rdx)                                  #87.23
        movq      %rcx, 8(%rdx)                                 #87.23
        movq      %r8, 16(%rdx)                                 #87.23
        movq      %rdx, (%rsi)                                  #87.23
        movl      $2, %edx                                      #87.12
        movq      $_ZNSt17_Function_handlerIFdiiESt5_BindIFPFdiiddESt12_PlaceholderILi1EES4_ILi2EEddEEE9_M_invokeERKSt9_Any_dataii, 24(%rsi) #87.9
        movq      $_ZNSt14_Function_base13_Base_managerISt5_BindIFPFdiiddESt12_PlaceholderILi1EES4_ILi2EEddEEE10_M_managerERSt9_Any_dataRKSA_St18_Manager_operation, 16(%rsi) #87.9
..___tag_value__ZN3PDE15refreshBoundaryEP4Grid.150:
#       Grid::copyToHalo(Grid *, std::function<double (int, int)> *, Direction)
        call      _ZN4Grid10copyToHaloESt8functionIFdiiEE9Direction #87.12
..___tag_value__ZN3PDE15refreshBoundaryEP4Grid.151:
                                # LOE rbx rbp r12 r13 r14 r15
..B10.19:                       # Preds ..B10.18
                                # Execution count [5.10e-02]: Infreq
        lea       72(%rsp), %rdi                                #87.12
..___tag_value__ZN3PDE15refreshBoundaryEP4Grid.152:
#       std::_Function_base::~_Function_base(std::_Function_base *)
        call      _ZNSt14_Function_baseD1Ev                     #87.12
..___tag_value__ZN3PDE15refreshBoundaryEP4Grid.153:
        jmp       ..B10.4       # Prob 100%                     #87.12
                                # LOE rbx rbp r12 r13 r14 r15
..___tag_value__ZN3PDE15refreshBoundaryEP4Grid.118:
..B10.20:                       # Preds ..B10.18
                                # Execution count [0.00e+00]: Infreq
        movq      %rax, (%rsp)                                  #87.23
                                # LOE rbx rbp r12 r13
..B10.21:                       # Preds ..B10.20
                                # Execution count [0.00e+00]: Infreq
        lea       72(%rsp), %rdi                                #87.23
..___tag_value__ZN3PDE15refreshBoundaryEP4Grid.154:
#       std::function<double (int, int)>::~function(std::function<double (int, int)> *)
        call      _ZNSt8functionIFdiiEED1Ev                     #87.23
..___tag_value__ZN3PDE15refreshBoundaryEP4Grid.155:
        jmp       ..B10.12      # Prob 100%                     #87.23
                                # LOE rbx rbp r12 r13
..___tag_value__ZN3PDE15refreshBoundaryEP4Grid.117:
..B10.23:                       # Preds ..B10.16
                                # Execution count [0.00e+00]: Infreq
        movq      %rax, (%rsp)                                  #87.23
                                # LOE rbx rbp r12 r13
..B10.24:                       # Preds ..B10.23
                                # Execution count [0.00e+00]: Infreq
        lea       72(%rsp), %rdi                                #87.23
..___tag_value__ZN3PDE15refreshBoundaryEP4Grid.156:
#       std::_Function_base::~_Function_base(std::_Function_base *const)
        call      _ZNSt14_Function_baseD2Ev                     #87.23
..___tag_value__ZN3PDE15refreshBoundaryEP4Grid.157:
        jmp       ..B10.12      # Prob 100%                     #87.23
                                # LOE rbx rbp r12 r13
..B10.26:                       # Preds ..B10.2
                                # Execution count [6.08e-03]: Infreq
        movq      32(%r14), %rax                                #84.23
        movl      $24, %edi                                     #84.23
        movq      80(%r14), %rdx                                #84.23
        movq      72(%r14), %rcx                                #84.23
        movq      %rax, 72(%rsp)                                #84.23
        movq      %rdx, 80(%rsp)                                #84.23
        movq      %rcx, 88(%rsp)                                #84.23
        movq      $0, 56(%rsp)                                  #84.9
..___tag_value__ZN3PDE15refreshBoundaryEP4Grid.158:
#       operator new(std::size_t)
        call      _Znwm                                         #84.23
..___tag_value__ZN3PDE15refreshBoundaryEP4Grid.159:
                                # LOE rax rbx rbp r12 r13 r14 r15
..B10.27:                       # Preds ..B10.26
                                # Execution count [6.08e-03]: Infreq
        movq      %rax, %rdx                                    #84.23
                                # LOE rdx rbx rbp r12 r13 r14 r15
..B10.28:                       # Preds ..B10.27
                                # Execution count [5.10e-02]: Infreq
        movq      72(%rsp), %rax                                #84.23
        movq      %r15, %rdi                                    #84.12
        movq      80(%rsp), %rcx                                #84.23
        lea       40(%rsp), %rsi                                #84.12
        movq      48(%rsi), %r8                                 #84.23
        movq      %rax, (%rdx)                                  #84.23
        movq      %rcx, 8(%rdx)                                 #84.23
        movq      %r8, 16(%rdx)                                 #84.23
        movq      %rdx, (%rsi)                                  #84.23
        movl      $1, %edx                                      #84.12
        movq      $_ZNSt17_Function_handlerIFdiiESt5_BindIFPFdiiddESt12_PlaceholderILi1EES4_ILi2EEddEEE9_M_invokeERKSt9_Any_dataii, 24(%rsi) #84.9
        movq      $_ZNSt14_Function_base13_Base_managerISt5_BindIFPFdiiddESt12_PlaceholderILi1EES4_ILi2EEddEEE10_M_managerERSt9_Any_dataRKSA_St18_Manager_operation, 16(%rsi) #84.9
..___tag_value__ZN3PDE15refreshBoundaryEP4Grid.160:
#       Grid::copyToHalo(Grid *, std::function<double (int, int)> *, Direction)
        call      _ZN4Grid10copyToHaloESt8functionIFdiiEE9Direction #84.12
..___tag_value__ZN3PDE15refreshBoundaryEP4Grid.161:
                                # LOE rbx rbp r12 r13 r14 r15
..B10.29:                       # Preds ..B10.28
                                # Execution count [5.10e-02]: Infreq
        lea       40(%rsp), %rdi                                #84.12
..___tag_value__ZN3PDE15refreshBoundaryEP4Grid.162:
#       std::_Function_base::~_Function_base(std::_Function_base *)
        call      _ZNSt14_Function_baseD1Ev                     #84.12
..___tag_value__ZN3PDE15refreshBoundaryEP4Grid.163:
        jmp       ..B10.3       # Prob 100%                     #84.12
                                # LOE rbx rbp r12 r13 r14 r15
..___tag_value__ZN3PDE15refreshBoundaryEP4Grid.116:
..B10.30:                       # Preds ..B10.28
                                # Execution count [0.00e+00]: Infreq
        movq      %rax, (%rsp)                                  #84.23
                                # LOE rbx rbp r12 r13
..B10.31:                       # Preds ..B10.30
                                # Execution count [0.00e+00]: Infreq
        lea       40(%rsp), %rdi                                #84.23
..___tag_value__ZN3PDE15refreshBoundaryEP4Grid.164:
#       std::function<double (int, int)>::~function(std::function<double (int, int)> *)
        call      _ZNSt8functionIFdiiEED1Ev                     #84.23
..___tag_value__ZN3PDE15refreshBoundaryEP4Grid.165:
        jmp       ..B10.12      # Prob 100%                     #84.23
                                # LOE rbx rbp r12 r13
..___tag_value__ZN3PDE15refreshBoundaryEP4Grid.115:
..B10.33:                       # Preds ..B10.26
                                # Execution count [0.00e+00]: Infreq
        movq      %rax, (%rsp)                                  #84.23
                                # LOE rbx rbp r12 r13
..B10.34:                       # Preds ..B10.33
                                # Execution count [0.00e+00]: Infreq
        lea       40(%rsp), %rdi                                #84.23
..___tag_value__ZN3PDE15refreshBoundaryEP4Grid.166:
#       std::_Function_base::~_Function_base(std::_Function_base *const)
        call      _ZNSt14_Function_baseD2Ev                     #84.23
..___tag_value__ZN3PDE15refreshBoundaryEP4Grid.167:
        jmp       ..B10.12      # Prob 100%                     #84.23
                                # LOE rbx rbp r12 r13
..B10.36:                       # Preds ..B10.1
                                # Execution count [6.08e-03]: Infreq
        movq      24(%r14), %rax                                #81.23
        movl      $24, %edi                                     #81.23
        movq      80(%r14), %rdx                                #81.23
        movq      72(%r14), %rcx                                #81.23
        movq      %rax, 40(%rsp)                                #81.23
        movq      %rdx, 48(%rsp)                                #81.23
        movq      %rcx, 56(%rsp)                                #81.23
        movq      $0, 24(%rsp)                                  #81.9
..___tag_value__ZN3PDE15refreshBoundaryEP4Grid.168:
#       operator new(std::size_t)
        call      _Znwm                                         #81.23
..___tag_value__ZN3PDE15refreshBoundaryEP4Grid.169:
                                # LOE rax rbx rbp r12 r13 r14 r15
..B10.37:                       # Preds ..B10.36
                                # Execution count [6.08e-03]: Infreq
        movq      %rax, %rdx                                    #81.23
                                # LOE rdx rbx rbp r12 r13 r14 r15
..B10.38:                       # Preds ..B10.37
                                # Execution count [5.10e-02]: Infreq
        movq      40(%rsp), %rax                                #81.23
        movq      %r15, %rdi                                    #81.12
        movq      48(%rsp), %rcx                                #81.23
        lea       8(%rsp), %rsi                                 #81.12
        movq      48(%rsi), %r8                                 #81.23
        movq      %rax, (%rdx)                                  #81.23
        movq      %rcx, 8(%rdx)                                 #81.23
        movq      %r8, 16(%rdx)                                 #81.23
        movq      %rdx, (%rsi)                                  #81.23
        xorl      %edx, %edx                                    #81.12
        movq      $_ZNSt17_Function_handlerIFdiiESt5_BindIFPFdiiddESt12_PlaceholderILi1EES4_ILi2EEddEEE9_M_invokeERKSt9_Any_dataii, 24(%rsi) #81.9
        movq      $_ZNSt14_Function_base13_Base_managerISt5_BindIFPFdiiddESt12_PlaceholderILi1EES4_ILi2EEddEEE10_M_managerERSt9_Any_dataRKSA_St18_Manager_operation, 16(%rsi) #81.9
..___tag_value__ZN3PDE15refreshBoundaryEP4Grid.170:
#       Grid::copyToHalo(Grid *, std::function<double (int, int)> *, Direction)
        call      _ZN4Grid10copyToHaloESt8functionIFdiiEE9Direction #81.12
..___tag_value__ZN3PDE15refreshBoundaryEP4Grid.171:
                                # LOE rbx rbp r12 r13 r14 r15
..B10.39:                       # Preds ..B10.38
                                # Execution count [5.10e-02]: Infreq
        lea       8(%rsp), %rdi                                 #81.12
..___tag_value__ZN3PDE15refreshBoundaryEP4Grid.172:
#       std::_Function_base::~_Function_base(std::_Function_base *)
        call      _ZNSt14_Function_baseD1Ev                     #81.12
..___tag_value__ZN3PDE15refreshBoundaryEP4Grid.173:
        jmp       ..B10.2       # Prob 100%                     #81.12
                                # LOE rbx rbp r12 r13 r14 r15
..___tag_value__ZN3PDE15refreshBoundaryEP4Grid.114:
..B10.40:                       # Preds ..B10.38
                                # Execution count [0.00e+00]: Infreq
        movq      %rax, (%rsp)                                  #81.23
                                # LOE rbx rbp r12 r13
..B10.41:                       # Preds ..B10.40
                                # Execution count [0.00e+00]: Infreq
        lea       8(%rsp), %rdi                                 #81.23
..___tag_value__ZN3PDE15refreshBoundaryEP4Grid.174:
#       std::function<double (int, int)>::~function(std::function<double (int, int)> *)
        call      _ZNSt8functionIFdiiEED1Ev                     #81.23
..___tag_value__ZN3PDE15refreshBoundaryEP4Grid.175:
        jmp       ..B10.12      # Prob 100%                     #81.23
                                # LOE rbx rbp r12 r13
..___tag_value__ZN3PDE15refreshBoundaryEP4Grid.113:
..B10.43:                       # Preds ..B10.36
                                # Execution count [0.00e+00]: Infreq
        movq      %rax, (%rsp)                                  #81.23
                                # LOE rbx rbp r12 r13
..B10.44:                       # Preds ..B10.43
                                # Execution count [0.00e+00]: Infreq
        lea       8(%rsp), %rdi                                 #81.23
..___tag_value__ZN3PDE15refreshBoundaryEP4Grid.176:
#       std::_Function_base::~_Function_base(std::_Function_base *const)
        call      _ZNSt14_Function_baseD2Ev                     #81.23
..___tag_value__ZN3PDE15refreshBoundaryEP4Grid.177:
        jmp       ..B10.12      # Prob 100%                     #81.23
        .align    16,0x90
                                # LOE rbx rbp r12 r13
	.cfi_endproc
# mark_end;
	.type	_ZN3PDE15refreshBoundaryEP4Grid,@function
	.size	_ZN3PDE15refreshBoundaryEP4Grid,.-_ZN3PDE15refreshBoundaryEP4Grid
	.section .gcc_except_table, "a"
	.align 4
_ZN3PDE15refreshBoundaryEP4Grid$$LSDA:
	.byte	255
	.byte	0
	.uleb128	..___tag_value__ZN3PDE15refreshBoundaryEP4Grid.182 - ..___tag_value__ZN3PDE15refreshBoundaryEP4Grid.181
..___tag_value__ZN3PDE15refreshBoundaryEP4Grid.181:
	.byte	1
	.uleb128	..___tag_value__ZN3PDE15refreshBoundaryEP4Grid.180 - ..___tag_value__ZN3PDE15refreshBoundaryEP4Grid.179
..___tag_value__ZN3PDE15refreshBoundaryEP4Grid.179:
	.uleb128	..___tag_value__ZN3PDE15refreshBoundaryEP4Grid.136 - ..___tag_value__ZN3PDE15refreshBoundaryEP4Grid.121
	.uleb128	..___tag_value__ZN3PDE15refreshBoundaryEP4Grid.137 - ..___tag_value__ZN3PDE15refreshBoundaryEP4Grid.136
	.uleb128	..___tag_value__ZN3PDE15refreshBoundaryEP4Grid.119 - ..___tag_value__ZN3PDE15refreshBoundaryEP4Grid.121
	.byte	0
	.uleb128	..___tag_value__ZN3PDE15refreshBoundaryEP4Grid.138 - ..___tag_value__ZN3PDE15refreshBoundaryEP4Grid.121
	.uleb128	..___tag_value__ZN3PDE15refreshBoundaryEP4Grid.139 - ..___tag_value__ZN3PDE15refreshBoundaryEP4Grid.138
	.uleb128	..___tag_value__ZN3PDE15refreshBoundaryEP4Grid.120 - ..___tag_value__ZN3PDE15refreshBoundaryEP4Grid.121
	.byte	0
	.uleb128	..___tag_value__ZN3PDE15refreshBoundaryEP4Grid.140 - ..___tag_value__ZN3PDE15refreshBoundaryEP4Grid.121
	.uleb128	..___tag_value__ZN3PDE15refreshBoundaryEP4Grid.141 - ..___tag_value__ZN3PDE15refreshBoundaryEP4Grid.140
	.byte	0
	.byte	0
	.uleb128	..___tag_value__ZN3PDE15refreshBoundaryEP4Grid.144 - ..___tag_value__ZN3PDE15refreshBoundaryEP4Grid.121
	.uleb128	..___tag_value__ZN3PDE15refreshBoundaryEP4Grid.145 - ..___tag_value__ZN3PDE15refreshBoundaryEP4Grid.144
	.byte	0
	.byte	0
	.uleb128	..___tag_value__ZN3PDE15refreshBoundaryEP4Grid.148 - ..___tag_value__ZN3PDE15refreshBoundaryEP4Grid.121
	.uleb128	..___tag_value__ZN3PDE15refreshBoundaryEP4Grid.149 - ..___tag_value__ZN3PDE15refreshBoundaryEP4Grid.148
	.uleb128	..___tag_value__ZN3PDE15refreshBoundaryEP4Grid.117 - ..___tag_value__ZN3PDE15refreshBoundaryEP4Grid.121
	.byte	0
	.uleb128	..___tag_value__ZN3PDE15refreshBoundaryEP4Grid.150 - ..___tag_value__ZN3PDE15refreshBoundaryEP4Grid.121
	.uleb128	..___tag_value__ZN3PDE15refreshBoundaryEP4Grid.151 - ..___tag_value__ZN3PDE15refreshBoundaryEP4Grid.150
	.uleb128	..___tag_value__ZN3PDE15refreshBoundaryEP4Grid.118 - ..___tag_value__ZN3PDE15refreshBoundaryEP4Grid.121
	.byte	0
	.uleb128	..___tag_value__ZN3PDE15refreshBoundaryEP4Grid.152 - ..___tag_value__ZN3PDE15refreshBoundaryEP4Grid.121
	.uleb128	..___tag_value__ZN3PDE15refreshBoundaryEP4Grid.153 - ..___tag_value__ZN3PDE15refreshBoundaryEP4Grid.152
	.byte	0
	.byte	0
	.uleb128	..___tag_value__ZN3PDE15refreshBoundaryEP4Grid.158 - ..___tag_value__ZN3PDE15refreshBoundaryEP4Grid.121
	.uleb128	..___tag_value__ZN3PDE15refreshBoundaryEP4Grid.159 - ..___tag_value__ZN3PDE15refreshBoundaryEP4Grid.158
	.uleb128	..___tag_value__ZN3PDE15refreshBoundaryEP4Grid.115 - ..___tag_value__ZN3PDE15refreshBoundaryEP4Grid.121
	.byte	0
	.uleb128	..___tag_value__ZN3PDE15refreshBoundaryEP4Grid.160 - ..___tag_value__ZN3PDE15refreshBoundaryEP4Grid.121
	.uleb128	..___tag_value__ZN3PDE15refreshBoundaryEP4Grid.161 - ..___tag_value__ZN3PDE15refreshBoundaryEP4Grid.160
	.uleb128	..___tag_value__ZN3PDE15refreshBoundaryEP4Grid.116 - ..___tag_value__ZN3PDE15refreshBoundaryEP4Grid.121
	.byte	0
	.uleb128	..___tag_value__ZN3PDE15refreshBoundaryEP4Grid.162 - ..___tag_value__ZN3PDE15refreshBoundaryEP4Grid.121
	.uleb128	..___tag_value__ZN3PDE15refreshBoundaryEP4Grid.163 - ..___tag_value__ZN3PDE15refreshBoundaryEP4Grid.162
	.byte	0
	.byte	0
	.uleb128	..___tag_value__ZN3PDE15refreshBoundaryEP4Grid.168 - ..___tag_value__ZN3PDE15refreshBoundaryEP4Grid.121
	.uleb128	..___tag_value__ZN3PDE15refreshBoundaryEP4Grid.169 - ..___tag_value__ZN3PDE15refreshBoundaryEP4Grid.168
	.uleb128	..___tag_value__ZN3PDE15refreshBoundaryEP4Grid.113 - ..___tag_value__ZN3PDE15refreshBoundaryEP4Grid.121
	.byte	0
	.uleb128	..___tag_value__ZN3PDE15refreshBoundaryEP4Grid.170 - ..___tag_value__ZN3PDE15refreshBoundaryEP4Grid.121
	.uleb128	..___tag_value__ZN3PDE15refreshBoundaryEP4Grid.171 - ..___tag_value__ZN3PDE15refreshBoundaryEP4Grid.170
	.uleb128	..___tag_value__ZN3PDE15refreshBoundaryEP4Grid.114 - ..___tag_value__ZN3PDE15refreshBoundaryEP4Grid.121
	.byte	0
	.uleb128	..___tag_value__ZN3PDE15refreshBoundaryEP4Grid.172 - ..___tag_value__ZN3PDE15refreshBoundaryEP4Grid.121
	.uleb128	..___tag_value__ZN3PDE15refreshBoundaryEP4Grid.173 - ..___tag_value__ZN3PDE15refreshBoundaryEP4Grid.172
	.byte	0
	.byte	0
..___tag_value__ZN3PDE15refreshBoundaryEP4Grid.180:
	.long	0x00000000,0x00000000
..___tag_value__ZN3PDE15refreshBoundaryEP4Grid.182:
	.data
# -- End  _ZN3PDE15refreshBoundaryEP4Grid
	.text
# -- Begin  _ZN3PDE8residualEP4GridS1_S1_, L__ZN3PDE8residualEP4GridS1_S1__113__par_loop0_2.54, L__ZN3PDE8residualEP4GridS1_S1__113__tree_reduce0_2.55
	.text
# mark_begin;
       .align    16,0x90
	.globl _ZN3PDE8residualEP4GridS1_S1_
# --- PDE::residual(PDE *, Grid *, Grid *, Grid *)
_ZN3PDE8residualEP4GridS1_S1_:
# parameter 1: %rdi
# parameter 2: %rsi
# parameter 3: %rdx
# parameter 4: %rcx
..B11.1:                        # Preds ..B11.0
                                # Execution count [1.00e+00]
	.cfi_startproc
	.cfi_personality 0x3,__gxx_personality_v0
..___tag_value__ZN3PDE8residualEP4GridS1_S1_.183:
..L184:
                                                        #97.1
        subq      $168, %rsp                                    #97.1
	.cfi_def_cfa_offset 176
        movq      %rbx, 64(%rsp)                                #97.1[spill]
	.cfi_offset 3, -112
        movq      %rdi, %rbx                                    #97.1
        movq      %rsi, (%rsp)                                  #97.1
        movq      %rcx, %rdi                                    #104.26
        movl      $1, %esi                                      #104.26
        movq      %rbp, 72(%rsp)                                #97.1[spill]
        movq      %r15, 32(%rsp)                                #97.1[spill]
        movq      %r14, 40(%rsp)                                #97.1[spill]
        movq      %r13, 48(%rsp)                                #97.1[spill]
        movq      %r12, 56(%rsp)                                #97.1[spill]
        movq      %rdx, 8(%rsp)                                 #97.1
        movq      %rcx, 16(%rsp)                                #97.1
..___tag_value__ZN3PDE8residualEP4GridS1_S1_.187:
#       Grid::numGrids_x(const Grid *, bool) const
        call      _ZNK4Grid10numGrids_xEb                       #104.26
..___tag_value__ZN3PDE8residualEP4GridS1_S1_.188:
	.cfi_offset 6, -104
	.cfi_offset 12, -120
	.cfi_offset 13, -128
	.cfi_offset 14, -136
	.cfi_offset 15, -144
                                # LOE rbx eax
..B11.2:                        # Preds ..B11.1
                                # Execution count [1.00e+00]
        movl      $1, %esi                                      #105.26
        movq      16(%rsp), %rdi                                #105.26
        movl      %eax, 112(%rsp)                               #104.21
..___tag_value__ZN3PDE8residualEP4GridS1_S1_.194:
#       Grid::numGrids_y(const Grid *, bool) const
        call      _ZNK4Grid10numGrids_yEb                       #105.26
..___tag_value__ZN3PDE8residualEP4GridS1_S1_.195:
                                # LOE rbx eax
..B11.3:                        # Preds ..B11.2
                                # Execution count [1.00e+00]
        vmovsd    72(%rbx), %xmm0                               #107.29
        movl      $.2.735_2_kmpc_loc_struct_pack.54, %edi       #113.1
        vmulsd    %xmm0, %xmm0, %xmm1                           #107.33
        vmovsd    80(%rbx), %xmm2                               #108.29
        vmovsd    .L_2il0floatpacket.19(%rip), %xmm3            #107.33
        vdivsd    %xmm1, %xmm3, %xmm5                           #107.33
        vmulsd    %xmm2, %xmm2, %xmm4                           #108.33
        vaddsd    %xmm5, %xmm5, %xmm6                           #109.28
        vdivsd    %xmm4, %xmm3, %xmm8                           #108.33
        movl      %eax, 116(%rsp)                               #105.21
        xorl      %eax, %eax                                    #111.26
        vmovsd    %xmm5, 24(%rsp)                               #107.22
        vaddsd    %xmm8, %xmm6, %xmm7                           #109.38
        vmovsd    %xmm8, 80(%rsp)                               #108.22
        vaddsd    %xmm8, %xmm7, %xmm9                           #109.38
        vmovsd    %xmm9, 88(%rsp)                               #109.22
        movq      %rax, 96(%rsp)                                #111.26
        movq      %rax, 104(%rsp)                               #111.37
        call      __kmpc_global_thread_num                      #113.1
                                # LOE eax
..B11.35:                       # Preds ..B11.3
                                # Execution count [1.00e+00]
        movl      %eax, 120(%rsp)                               #113.1
        movl      $.2.735_2_kmpc_loc_struct_pack.62, %edi       #113.1
        xorl      %eax, %eax                                    #113.1
..___tag_value__ZN3PDE8residualEP4GridS1_S1_.196:
        call      __kmpc_ok_to_fork                             #113.1
..___tag_value__ZN3PDE8residualEP4GridS1_S1_.197:
                                # LOE eax
..B11.4:                        # Preds ..B11.35
                                # Execution count [1.00e+00]
        testl     %eax, %eax                                    #113.1
        je        ..B11.6       # Prob 50%                      #113.1
                                # LOE
..B11.5:                        # Preds ..B11.4
                                # Execution count [0.00e+00]
        addq      $-64, %rsp                                    #113.1
	.cfi_def_cfa_offset 240
        movl      $L__ZN3PDE8residualEP4GridS1_S1__113__par_loop0_2.54, %edx #113.1
        movl      $.2.735_2_kmpc_loc_struct_pack.62, %edi       #113.1
        lea       72(%rsp), %rax                                #113.1
        movl      $10, %esi                                     #113.1
        lea       72(%rax), %rbx                                #113.1
        lea       108(%rax), %rcx                               #113.1
        movq      %rax, (%rsp)                                  #113.1
        lea       104(%rax), %r8                                #113.1
        movq      %rbx, 8(%rsp)                                 #113.1
        lea       96(%rax), %r9                                 #113.1
        xorl      %eax, %eax                                    #113.1
        lea       -100(%rcx), %rbp                              #113.1
        movq      %rbp, 16(%rsp)                                #113.1
        lea       -92(%rcx), %r10                               #113.1
        movq      %r10, 24(%rsp)                                #113.1
        lea       -28(%rcx), %r11                               #113.1
        movq      %r11, 32(%rsp)                                #113.1
        lea       64(%rsp), %r12                                #113.1
        movq      %r12, 40(%rsp)                                #113.1
        lea       -20(%rcx), %r13                               #113.1
        movq      %r13, 48(%rsp)                                #113.1
..___tag_value__ZN3PDE8residualEP4GridS1_S1_.199:
        call      __kmpc_fork_call                              #113.1
..___tag_value__ZN3PDE8residualEP4GridS1_S1_.200:
                                # LOE
..B11.36:                       # Preds ..B11.5
                                # Execution count [0.00e+00]
        addq      $64, %rsp                                     #113.1
	.cfi_def_cfa_offset 176
        jmp       ..B11.9       # Prob 100%                     #113.1
                                # LOE
..B11.6:                        # Preds ..B11.4
                                # Execution count [0.00e+00]
        movl      $.2.735_2_kmpc_loc_struct_pack.62, %edi       #113.1
        xorl      %eax, %eax                                    #113.1
        movl      120(%rsp), %esi                               #113.1
..___tag_value__ZN3PDE8residualEP4GridS1_S1_.202:
        call      __kmpc_serialized_parallel                    #113.1
..___tag_value__ZN3PDE8residualEP4GridS1_S1_.203:
                                # LOE
..B11.7:                        # Preds ..B11.6
                                # Execution count [0.00e+00]
        movl      $___kmpv_zero_ZN3PDE8residualEP4GridS1_S1__0, %esi #113.1
        lea       96(%rsp), %rax                                #113.1
        lea       (%rsp), %rbx                                  #113.1
        lea       -8(%rax), %rbp                                #113.1
        lea       -72(%rax), %r10                               #113.1
        lea       24(%rax), %rdi                                #113.1
        lea       20(%rax), %rdx                                #113.1
        lea       16(%rax), %rcx                                #113.1
        lea       8(%rax), %r8                                  #113.1
        lea       -88(%rax), %r9                                #113.1
        lea       -16(%rax), %r12                               #113.1
        lea       -80(%rax), %r11                               #113.1
        pushq     %rax                                          #113.1
	.cfi_def_cfa_offset 184
        pushq     %rbx                                          #113.1
	.cfi_def_cfa_offset 192
        pushq     %rbp                                          #113.1
	.cfi_def_cfa_offset 200
        pushq     %r10                                          #113.1
	.cfi_def_cfa_offset 208
        pushq     %r11                                          #113.1
	.cfi_def_cfa_offset 216
        pushq     %r12                                          #113.1
	.cfi_def_cfa_offset 224
..___tag_value__ZN3PDE8residualEP4GridS1_S1_.210:
        call      L__ZN3PDE8residualEP4GridS1_S1__113__par_loop0_2.54 #113.1
..___tag_value__ZN3PDE8residualEP4GridS1_S1_.211:
                                # LOE
..B11.37:                       # Preds ..B11.7
                                # Execution count [0.00e+00]
        addq      $48, %rsp                                     #113.1
	.cfi_def_cfa_offset 176
                                # LOE
..B11.8:                        # Preds ..B11.37
                                # Execution count [0.00e+00]
        movl      $.2.735_2_kmpc_loc_struct_pack.62, %edi       #113.1
        xorl      %eax, %eax                                    #113.1
        movl      120(%rsp), %esi                               #113.1
..___tag_value__ZN3PDE8residualEP4GridS1_S1_.213:
        call      __kmpc_end_serialized_parallel                #113.1
..___tag_value__ZN3PDE8residualEP4GridS1_S1_.214:
                                # LOE
..B11.9:                        # Preds ..B11.36 ..B11.8
                                # Execution count [1.00e+00]
        movq      32(%rsp), %r15                                #124.12[spill]
	.cfi_restore 15
        movq      40(%rsp), %r14                                #124.12[spill]
	.cfi_restore 14
        movq      48(%rsp), %r13                                #124.12[spill]
	.cfi_restore 13
        movq      56(%rsp), %r12                                #124.12[spill]
	.cfi_restore 12
        movq      64(%rsp), %rbx                                #124.12[spill]
	.cfi_restore 3
        movq      72(%rsp), %rbp                                #124.12[spill]
	.cfi_restore 6
        vmovsd    96(%rsp), %xmm0                               #124.12
        addq      $168, %rsp                                    #124.12
	.cfi_def_cfa_offset 8
        ret                                                     #124.12
	.cfi_def_cfa_offset 176
                                # LOE
L__ZN3PDE8residualEP4GridS1_S1__113__tree_reduce0_2.55:
# parameter 1: %rdi
# parameter 2: %rsi
..B11.10:                       # Preds ..B11.0
                                # Execution count [0.00e+00]
        subq      $168, %rsp                                    #113.1
        vmovsd    (%rdi), %xmm0                                 #113.1
        movq      %r15, 32(%rsp)                                #113.1[spill]
        movq      %r14, 40(%rsp)                                #113.1[spill]
        movq      %r13, 48(%rsp)                                #113.1[spill]
        movq      %r12, 56(%rsp)                                #113.1[spill]
        movq      %rbp, 72(%rsp)                                #113.1[spill]
        movq      %rbx, 64(%rsp)                                #113.1[spill]
        vaddsd    (%rsi), %xmm0, %xmm1                          #113.1
        vmovsd    %xmm1, (%rdi)                                 #113.1
        movq      32(%rsp), %r15                                #113.1[spill]
	.cfi_offset 3, -112
	.cfi_offset 6, -104
	.cfi_offset 12, -120
	.cfi_offset 13, -128
	.cfi_offset 14, -136
        movq      40(%rsp), %r14                                #113.1[spill]
	.cfi_restore 14
        movq      48(%rsp), %r13                                #113.1[spill]
	.cfi_restore 13
        movq      56(%rsp), %r12                                #113.1[spill]
	.cfi_restore 12
        movq      64(%rsp), %rbx                                #113.1[spill]
	.cfi_restore 3
        movq      72(%rsp), %rbp                                #113.1[spill]
	.cfi_restore 6
        addq      $168, %rsp                                    #113.1
	.cfi_def_cfa_offset 8
        ret                                                     #113.1
	.cfi_def_cfa_offset 176
                                # LOE
L__ZN3PDE8residualEP4GridS1_S1__113__par_loop0_2.54:
# parameter 1: %rdi
# parameter 2: %rsi
# parameter 3: %rdx
# parameter 4: %rcx
# parameter 5: %r8
# parameter 6: %r9
# parameter 7: 176 + %rsp
# parameter 8: 184 + %rsp
# parameter 9: 192 + %rsp
# parameter 10: 200 + %rsp
# parameter 11: 208 + %rsp
# parameter 12: 216 + %rsp
..B11.11:                       # Preds ..B11.0
                                # Execution count [1.00e+00]
        subq      $168, %rsp                                    #113.1
        movq      %rbx, 64(%rsp)                                #113.1[spill]
	.cfi_offset 3, -112
        movq      176(%rsp), %rbx                               #113.1
        movq      208(%rsp), %rax                               #113.1
        movq      %rbp, 72(%rsp)                                #113.1[spill]
	.cfi_offset 6, -104
        movq      %r8, %rbp                                     #113.1
        movl      (%rdx), %r8d                                  #113.1
        movq      192(%rsp), %r11                               #113.1
        movq      200(%rsp), %r10                               #113.1
        movq      %r13, 48(%rsp)                                #113.1[spill]
	.cfi_offset 13, -128
        movq      184(%rsp), %r13                               #113.1
        movq      %r12, 56(%rsp)                                #113.1[spill]
        vmovsd    (%rbx), %xmm2                                 #113.1
	.cfi_offset 12, -120
        movq      (%rax), %r12                                  #113.1
        movl      (%rcx), %ebx                                  #113.1
        lea       -1(%r8), %ecx                                 #114.16
        vmovsd    (%r10), %xmm0                                 #113.1
        vmovsd    (%r11), %xmm1                                 #113.1
        movq      (%r9), %rax                                   #113.1
        movq      %r15, 32(%rsp)                                #113.1[spill]
        movq      %r14, 40(%rsp)                                #113.1[spill]
	.cfi_offset 14, -136
	.cfi_offset 15, -144
        movq      216(%rsp), %r15                               #113.1
        movl      (%rdi), %r14d                                 #113.1
        vmovsd    %xmm0, 88(%rsp)                               #113.1[spill]
        vmovsd    %xmm1, 80(%rsp)                               #113.1[spill]
        movq      (%r13), %r13                                  #113.1
        vmovsd    %xmm2, 96(%rsp)                               #113.1[spill]
        movq      %rax, 104(%rsp)                               #113.1[spill]
        movq      $0, 112(%rsp)                                 #113.1
        cmpl      $1, %ecx                                      #115.5
        jle       ..B11.17      # Prob 10%                      #115.5
                                # LOE rbp r12 r13 r15 ebx r8d r14d
..B11.12:                       # Preds ..B11.11
                                # Execution count [5.00e+00]
        movl      $1, %r10d                                     #113.1
        addl      $-2, %r8d                                     #114.16
        movl      %r10d, 152(%rsp)                              #113.1
        movl      $.2.735_2_kmpc_loc_struct_pack.62, %edi       #113.1
        movl      %r8d, 156(%rsp)                               #113.1
        movl      %r14d, %esi                                   #113.1
        movl      $0, 160(%rsp)                                 #113.1
        movl      $37, %edx                                     #113.1
        movl      %r10d, 164(%rsp)                              #113.1
        addq      $-16, %rsp                                    #113.1
	.cfi_def_cfa_offset 192
        movl      %r10d, %ecx                                   #113.1
        movl      %r10d, %r9d                                   #113.1
        xorl      %eax, %eax                                    #113.1
        movl      %r10d, (%rsp)                                 #113.1
..___tag_value__ZN3PDE8residualEP4GridS1_S1_.244:
        call      __kmpc_dispatch_init_4                        #113.1
..___tag_value__ZN3PDE8residualEP4GridS1_S1_.245:
                                # LOE rbp r12 r13 r15 ebx r14d
..B11.38:                       # Preds ..B11.12
                                # Execution count [5.00e+00]
        addq      $16, %rsp                                     #113.1
	.cfi_def_cfa_offset 176
                                # LOE rbp r12 r13 r15 ebx r14d
..B11.13:                       # Preds ..B11.38
                                # Execution count [0.00e+00]
        movslq    %ebx, %rcx                                    #116.9
        lea       -1(%rbx), %eax                                #116.32
        addq      $-2, %rcx                                     #116.32
        lea       160(%rsp), %rdx                               #113.1
        movq      %rcx, -40(%rdx)                               #113.1[spill]
        lea       -4(%rdx), %r8                                 #113.1
        movq      %r13, 8(%rsp)                                 #113.1[spill]
        lea       4(%rdx), %r9                                  #113.1
        movq      %r12, 16(%rsp)                                #113.1[spill]
        lea       -8(%rdx), %rbx                                #113.1
        movq      %r15, (%rsp)                                  #113.1[spill]
        movl      %eax, %r15d                                   #113.1
        movq      %rbp, -32(%rdx)                               #113.1[spill]
        movq      %rdx, %rbp                                    #113.1
        movq      %r8, %r12                                     #113.1
        movq      %r9, %r13                                     #113.1
        jmp       ..B11.14      # Prob 100%                     #113.1
                                # LOE rbx rbp r12 r13 r14d r15d
..B11.29:                       # Preds ..B11.28
                                # Execution count [9.00e-01]
        movl      24(%rsp), %r14d                               #[spill]
        lea       164(%rsp), %r13                               #
        lea       156(%rsp), %r12                               #
        lea       152(%rsp), %rbx                               #
        lea       160(%rsp), %rbp                               #
                                # LOE rbx rbp r12 r13 r14d r15d
..B11.14:                       # Preds ..B11.29 ..B11.13
                                # Execution count [0.00e+00]
        movl      $.2.735_2_kmpc_loc_struct_pack.62, %edi       #113.1
        movl      %r14d, %esi                                   #113.1
        movq      %rbp, %rdx                                    #113.1
        movq      %rbx, %rcx                                    #113.1
        movq      %r12, %r8                                     #113.1
        movq      %r13, %r9                                     #113.1
        xorl      %eax, %eax                                    #113.1
..___tag_value__ZN3PDE8residualEP4GridS1_S1_.247:
        call      __kmpc_dispatch_next_4                        #113.1
..___tag_value__ZN3PDE8residualEP4GridS1_S1_.248:
                                # LOE rbx rbp r12 r13 eax r14d r15d
..B11.15:                       # Preds ..B11.14
                                # Execution count [0.00e+00]
        movl      152(%rsp), %r10d                              #113.1
        testl     %eax, %eax                                    #113.1
        movl      156(%rsp), %eax                               #113.1
        jne       ..B11.23      # Prob 50%                      #113.1
                                # LOE rbx rbp r12 r13 eax r10d r14d r15d
..B11.16:                       # Preds ..B11.15
                                # Execution count [0.00e+00]
        movq      (%rsp), %r15                                  #[spill]
                                # LOE r15 r14d
..B11.17:                       # Preds ..B11.16 ..B11.11
                                # Execution count [0.00e+00]
        addq      $-16, %rsp                                    #113.1
	.cfi_def_cfa_offset 192
        movl      $.2.735_2_kmpc_loc_struct_pack.102, %ebx      #113.1
        movl      $L__ZN3PDE8residualEP4GridS1_S1__113__tree_reduce0_2.55, %r9d #113.1
        lea       128(%rsp), %r8                                #113.1
        movq      %rbx, %rdi                                    #113.1
        movl      %r14d, %esi                                   #113.1
        xorl      %edx, %edx                                    #113.1
        incl      %edx                                          #113.1
        movl      $8, %ecx                                      #113.1
        xorl      %eax, %eax                                    #113.1
        movq      $residual_kmpc_tree_reduct_lock_0, (%rsp)     #113.1
..___tag_value__ZN3PDE8residualEP4GridS1_S1_.250:
        call      __kmpc_reduce_nowait                          #113.1
..___tag_value__ZN3PDE8residualEP4GridS1_S1_.251:
                                # LOE rbx r15 eax r14d
..B11.40:                       # Preds ..B11.17
                                # Execution count [0.00e+00]
        addq      $16, %rsp                                     #113.1
	.cfi_def_cfa_offset 176
                                # LOE rbx r15 eax r14d
..B11.18:                       # Preds ..B11.40
                                # Execution count [0.00e+00]
        cmpl      $1, %eax                                      #113.1
        jne       ..B11.20      # Prob 50%                      #113.1
                                # LOE rbx r15 eax r14d
..B11.19:                       # Preds ..B11.18
                                # Execution count [0.00e+00]
        vmovsd    (%r15), %xmm0                                 #113.1
        movl      $residual_kmpc_tree_reduct_lock_0, %edx       #113.1
        movq      %rbx, %rdi                                    #113.1
        movl      %r14d, %esi                                   #113.1
        xorl      %eax, %eax                                    #113.1
        vaddsd    112(%rsp), %xmm0, %xmm1                       #113.1
        vmovsd    %xmm1, (%r15)                                 #113.1
..___tag_value__ZN3PDE8residualEP4GridS1_S1_.253:
        call      __kmpc_end_reduce_nowait                      #113.1
..___tag_value__ZN3PDE8residualEP4GridS1_S1_.254:
        jmp       ..B11.22      # Prob 100%                     #113.1
                                # LOE
..B11.20:                       # Preds ..B11.18
                                # Execution count [0.00e+00]
        cmpl      $2, %eax                                      #113.1
        jne       ..B11.22      # Prob 50%                      #113.1
                                # LOE rbx r15 r14d
..B11.21:                       # Preds ..B11.20
                                # Execution count [0.00e+00]
        vmovsd    112(%rsp), %xmm0                              #113.1
        movq      %rbx, %rdi                                    #113.1
        movl      %r14d, %esi                                   #113.1
        movq      %r15, %rdx                                    #113.1
        xorl      %eax, %eax                                    #113.1
        incl      %eax                                          #113.1
..___tag_value__ZN3PDE8residualEP4GridS1_S1_.255:
        call      __kmpc_atomic_float8_add                      #113.1
..___tag_value__ZN3PDE8residualEP4GridS1_S1_.256:
                                # LOE
..B11.22:                       # Preds ..B11.19 ..B11.21 ..B11.20
                                # Execution count [0.00e+00]
        movq      32(%rsp), %r15                                #113.1[spill]
	.cfi_restore 15
        movq      40(%rsp), %r14                                #113.1[spill]
	.cfi_restore 14
        movq      48(%rsp), %r13                                #113.1[spill]
	.cfi_restore 13
        movq      56(%rsp), %r12                                #113.1[spill]
	.cfi_restore 12
        movq      64(%rsp), %rbx                                #113.1[spill]
	.cfi_restore 3
        movq      72(%rsp), %rbp                                #113.1[spill]
	.cfi_restore 6
        addq      $168, %rsp                                    #113.1
	.cfi_def_cfa_offset 8
        ret                                                     #113.1
	.cfi_def_cfa_offset 176
	.cfi_offset 3, -112
	.cfi_offset 6, -104
	.cfi_offset 12, -120
	.cfi_offset 13, -128
	.cfi_offset 14, -136
	.cfi_offset 15, -144
                                # LOE
..B11.23:                       # Preds ..B11.15
                                # Execution count [9.00e-01]
        subl      %r10d, %eax                                   #113.1
        lea       -1(%r10), %edi                                #
        incl      %eax                                          #113.1
        xorl      %r11d, %r11d                                  #114.5
        vmovsd    112(%rsp), %xmm0                              #120.13
        vmovsd    96(%rsp), %xmm2                               #[spill]
        vmovsd    80(%rsp), %xmm3                               #[spill]
        vmovsd    88(%rsp), %xmm4                               #[spill]
        movq      104(%rsp), %rcx                               #[spill]
        movq      8(%rsp), %rbx                                 #[spill]
        movq      16(%rsp), %rbp                                #[spill]
        movl      %edi, 136(%rsp)                               #[spill]
        movl      %eax, 144(%rsp)                               #[spill]
        movl      %r14d, 24(%rsp)                               #[spill]
                                # LOE rcx rbx rbp r10d r11d r15d xmm0 xmm2 xmm3 xmm4
..B11.24:                       # Preds ..B11.28 ..B11.23
                                # Execution count [5.00e+00]
        xorl      %edi, %edi                                    #116.9
        cmpl      $1, %r15d                                     #116.32
        jle       ..B11.28      # Prob 10%                      #116.32
                                # LOE rcx rbx rbp rdi r10d r11d r15d xmm0 xmm2 xmm3 xmm4
..B11.25:                       # Preds ..B11.24
                                # Execution count [4.50e+00]
        movl      (%rcx), %r9d                                  #118.29
        lea       -1(%r11,%r10), %r14d                          #118.29
        movl      %r9d, %r8d                                    #118.29
        imull     %r14d, %r8d                                   #118.29
        addl      %r9d, %r8d                                    #118.29
        movslq    %r8d, %r8                                     #118.29
        movq      8(%rcx), %rdx                                 #118.29
        movl      (%rbx), %eax                                  #118.115
        movl      (%rbp), %r12d                                 #119.19
        imull     %r12d, %r14d                                  #119.19
        lea       (%rdx,%r8,8), %rdx                            #118.29
        movl      %r11d, %r8d                                   #118.115
        addl      %r12d, %r14d                                  #119.19
        imull     %eax, %r8d                                    #118.115
        movl      136(%rsp), %r12d                              #118.13[spill]
        lea       (%rax,%r8), %r9d                              #118.46
        imull     %eax, %r12d                                   #118.13
        subl      %eax, %r8d                                    #118.60
        imull     %r10d, %eax                                   #118.13
        addl      %r9d, %r12d                                   #118.115
        addl      %eax, %r8d                                    #118.60
        addl      %eax, %r9d                                    #118.46
        movslq    %r14d, %r14                                   #119.19
        movslq    %r12d, %r12                                   #118.80
        movslq    %r8d, %r8                                     #118.60
        movq      8(%rbx), %rsi                                 #118.115
        movslq    %r9d, %r9                                     #118.46
        movq      8(%rbp), %r13                                 #119.19
        lea       (%rsi,%r12,8), %r12                           #118.80
        lea       (%rsi,%r8,8), %rax                            #118.60
        movq      120(%rsp), %r8                                #118.46[spill]
        lea       (%r13,%r14,8), %r13                           #119.19
        lea       (%rsi,%r9,8), %rsi                            #118.46
        .align    16,0x90
                                # LOE rax rdx rcx rbx rbp rsi rdi r8 r12 r13 r10d r11d r15d xmm0 xmm2 xmm3 xmm4
..B11.26:                       # Preds ..B11.26 ..B11.25
                                # Execution count [2.50e+01]
        vmovsd    8(%rsi,%rdi,8), %xmm1                         #118.46
        vmovsd    16(%r12,%rdi,8), %xmm7                        #118.80
        vmulsd    8(%r12,%rdi,8), %xmm4, %xmm12                 #118.115
        vaddsd    8(%rax,%rdi,8), %xmm1, %xmm5                  #118.60
        vaddsd    (%r12,%rdi,8), %xmm7, %xmm8                   #118.94
        vmulsd    %xmm5, %xmm2, %xmm6                           #118.60
        vmulsd    %xmm8, %xmm3, %xmm10                          #118.94
        vaddsd    8(%rdx,%rdi,8), %xmm6, %xmm9                  #118.60
        vaddsd    %xmm10, %xmm9, %xmm11                         #118.94
        vsubsd    %xmm12, %xmm11, %xmm1                         #118.115
        vmulsd    %xmm1, %xmm1, %xmm13                          #120.38
        vmovsd    %xmm1, 8(%r13,%rdi,8)                         #119.19
        incq      %rdi                                          #116.9
        vaddsd    %xmm13, %xmm0, %xmm0                          #120.13
        cmpq      %r8, %rdi                                     #116.9
        jb        ..B11.26      # Prob 82%                      #116.9
                                # LOE rax rdx rcx rbx rbp rsi rdi r8 r12 r13 r10d r11d r15d xmm0 xmm1 xmm2 xmm3 xmm4
..B11.27:                       # Preds ..B11.26
                                # Execution count [4.50e+00]
        movq      128(%rsp), %rdx                               #118.13[spill]
        vmovsd    %xmm0, 112(%rsp)                              #120.13
        vmovsd    %xmm1, (%rdx)                                 #118.13
                                # LOE rcx rbx rbp r10d r11d r15d xmm0 xmm2 xmm3 xmm4
..B11.28:                       # Preds ..B11.27 ..B11.24
                                # Execution count [5.00e+00]
        incl      %r11d                                         #114.5
        cmpl      144(%rsp), %r11d                              #114.5[spill]
        jl        ..B11.24      # Prob 82%                      #114.5
        jmp       ..B11.29      # Prob 100%                     #114.5
        .align    16,0x90
                                # LOE rcx rbx rbp r10d r11d r15d xmm0 xmm2 xmm3 xmm4
	.cfi_endproc
# mark_end;
	.type	_ZN3PDE8residualEP4GridS1_S1_,@function
	.size	_ZN3PDE8residualEP4GridS1_S1_,.-_ZN3PDE8residualEP4GridS1_S1_
	.data
	.align 4
	.align 4
.2.735_2_kmpc_loc_struct_pack.54:
	.long	0
	.long	2
	.long	0
	.long	0
	.quad	.2.735_2__kmpc_loc_pack.53
	.align 4
.2.735_2__kmpc_loc_pack.53:
	.byte	59
	.byte	117
	.byte	110
	.byte	107
	.byte	110
	.byte	111
	.byte	119
	.byte	110
	.byte	59
	.byte	114
	.byte	101
	.byte	115
	.byte	105
	.byte	100
	.byte	117
	.byte	97
	.byte	108
	.byte	59
	.byte	49
	.byte	49
	.byte	51
	.byte	59
	.byte	49
	.byte	49
	.byte	51
	.byte	59
	.byte	59
	.space 1, 0x00 	# pad
	.align 4
.2.735_2_kmpc_loc_struct_pack.62:
	.long	0
	.long	2
	.long	0
	.long	0
	.quad	.2.735_2__kmpc_loc_pack.61
	.align 4
.2.735_2__kmpc_loc_pack.61:
	.byte	59
	.byte	117
	.byte	110
	.byte	107
	.byte	110
	.byte	111
	.byte	119
	.byte	110
	.byte	59
	.byte	114
	.byte	101
	.byte	115
	.byte	105
	.byte	100
	.byte	117
	.byte	97
	.byte	108
	.byte	59
	.byte	49
	.byte	49
	.byte	51
	.byte	59
	.byte	49
	.byte	50
	.byte	50
	.byte	59
	.byte	59
	.space 1, 0x00 	# pad
	.align 4
.2.735_2_kmpc_loc_struct_pack.102:
	.long	0
	.long	18
	.long	0
	.long	0
	.quad	.2.735_2__kmpc_loc_pack.101
	.align 4
.2.735_2__kmpc_loc_pack.101:
	.byte	59
	.byte	117
	.byte	110
	.byte	107
	.byte	110
	.byte	111
	.byte	119
	.byte	110
	.byte	59
	.byte	114
	.byte	101
	.byte	115
	.byte	105
	.byte	100
	.byte	117
	.byte	97
	.byte	108
	.byte	59
	.byte	49
	.byte	49
	.byte	51
	.byte	59
	.byte	49
	.byte	49
	.byte	51
	.byte	59
	.byte	59
	.data
# -- End  _ZN3PDE8residualEP4GridS1_S1_, L__ZN3PDE8residualEP4GridS1_S1__113__par_loop0_2.54, L__ZN3PDE8residualEP4GridS1_S1__113__tree_reduce0_2.55
	.text
# -- Begin  _ZN3PDE12applyStencilEP4GridS1_, L__ZN3PDE12applyStencilEP4GridS1__145__par_loop0_2.83
	.text
# mark_begin;
       .align    16,0x90
	.globl _ZN3PDE12applyStencilEP4GridS1_
# --- PDE::applyStencil(PDE *, Grid *, Grid *)
_ZN3PDE12applyStencilEP4GridS1_:
# parameter 1: %rdi
# parameter 2: %rsi
# parameter 3: %rdx
..B12.1:                        # Preds ..B12.0
                                # Execution count [1.00e+00]
	.cfi_startproc
	.cfi_personality 0x3,__gxx_personality_v0
	.cfi_lsda 0xb, _ZN3PDE12applyStencilEP4GridS1_$$LSDA
..___tag_value__ZN3PDE12applyStencilEP4GridS1_.276:
..L277:
                                                        #131.1
        subq      $168, %rsp                                    #131.1
	.cfi_def_cfa_offset 176
        movq      %rbp, 112(%rsp)                               #131.1[spill]
        movq      %rbx, 104(%rsp)                               #131.1[spill]
        movq      %r15, 72(%rsp)                                #131.1[spill]
	.cfi_offset 3, -72
	.cfi_offset 6, -64
	.cfi_offset 15, -104
        movq      %rdi, %r15                                    #131.1
        movq      %r14, 80(%rsp)                                #131.1[spill]
        movq      %r13, 88(%rsp)                                #131.1[spill]
        movq      %r12, 96(%rsp)                                #131.1[spill]
        movq      %rsi, 120(%rsp)                               #131.1
        movq      %rdx, 128(%rsp)                               #131.1
        cmpl      $0, timer_id.26492.0.359(%rip)                #132.5
        jl        ..B12.25      # Prob 16%                      #132.5
	.cfi_offset 12, -80
	.cfi_offset 13, -88
	.cfi_offset 14, -96
                                # LOE r15
..B12.2:                        # Preds ..B12.100 ..B12.137 ..B12.138 ..B12.1
                                # Execution count [1.00e+00]
        xorl      %esi, %esi                                    #132.5
        lea       40(%rsp), %rdi                                #132.5
#       gettimeofday(timeval *, timezone *)
        call      gettimeofday                                  #132.5
                                # LOE r15
..B12.3:                        # Preds ..B12.2
                                # Execution count [1.00e+00]
        vmovsd    72(%r15), %xmm4                               #141.29
        vxorpd    %xmm0, %xmm0, %xmm0                           #132.5
        vmulsd    %xmm4, %xmm4, %xmm5                           #141.33
        vxorpd    %xmm1, %xmm1, %xmm1                           #132.5
        vcvtsi2sdq 48(%rsp), %xmm0, %xmm0                       #132.5
        vcvtsi2sdq 40(%rsp), %xmm1, %xmm1                       #132.5
        vmulsd    .L_2il0floatpacket.84(%rip), %xmm0, %xmm2     #132.5
        vmovsd    .L_2il0floatpacket.19(%rip), %xmm7            #141.33
        movl      $.2.736_2_kmpc_loc_struct_pack.980, %edi      #145.1
        vmovsd    80(%r15), %xmm6                               #142.29
        vaddsd    %xmm2, %xmm1, %xmm3                           #132.5
        vmulsd    %xmm6, %xmm6, %xmm8                           #142.33
        vdivsd    %xmm5, %xmm7, %xmm9                           #141.33
        vdivsd    %xmm8, %xmm7, %xmm12                          #142.33
        movl      64(%r15), %eax                                #138.23
        vaddsd    %xmm9, %xmm9, %xmm10                          #143.28
        movl      68(%r15), %edx                                #139.23
        vaddsd    %xmm12, %xmm10, %xmm11                        #143.38
        vmovsd    %xmm3, 152(%rsp)                              #132.5[spill]
        vaddsd    %xmm12, %xmm11, %xmm13                        #143.38
        movl      %eax, 4(%rsp)                                 #138.21
        movl      %edx, 160(%rsp)                               #139.21
        vmovsd    %xmm9, 8(%rsp)                                #141.22
        vmovsd    %xmm12, 136(%rsp)                             #142.22
        vmovsd    %xmm13, 144(%rsp)                             #143.22
        call      __kmpc_global_thread_num                      #145.1
                                # LOE eax
..B12.159:                      # Preds ..B12.3
                                # Execution count [1.00e+00]
        movl      %eax, 164(%rsp)                               #145.1
        movl      $.2.736_2_kmpc_loc_struct_pack.1300, %edi     #145.1
        xorl      %eax, %eax                                    #145.1
..___tag_value__ZN3PDE12applyStencilEP4GridS1_.285:
        call      __kmpc_ok_to_fork                             #145.1
..___tag_value__ZN3PDE12applyStencilEP4GridS1_.286:
                                # LOE eax
..B12.4:                        # Preds ..B12.159
                                # Execution count [1.00e+00]
        testl     %eax, %eax                                    #145.1
        je        ..B12.6       # Prob 50%                      #145.1
                                # LOE
..B12.5:                        # Preds ..B12.4
                                # Execution count [0.00e+00]
        movl      $L__ZN3PDE12applyStencilEP4GridS1__145__par_loop0_2.83, %edx #145.1
        lea       8(%rsp), %rax                                 #145.1
        movl      $.2.736_2_kmpc_loc_struct_pack.1300, %edi     #145.1
        lea       128(%rax), %rbx                               #145.1
        movl      $7, %esi                                      #145.1
        lea       152(%rax), %rcx                               #145.1
        lea       -4(%rax), %r8                                 #145.1
        lea       112(%rax), %r9                                #145.1
        lea       136(%rax), %r10                               #145.1
        lea       120(%rax), %rbp                               #145.1
        pushq     %rax                                          #145.1
	.cfi_def_cfa_offset 184
	.cfi_escape 0x2e, 0x08
        pushq     %rbx                                          #145.1
	.cfi_def_cfa_offset 192
	.cfi_escape 0x2e, 0x10
        pushq     %rbp                                          #145.1
	.cfi_def_cfa_offset 200
	.cfi_escape 0x2e, 0x18
        xorl      %eax, %eax                                    #145.1
        pushq     %r10                                          #145.1
	.cfi_def_cfa_offset 208
	.cfi_escape 0x2e, 0x20
..___tag_value__ZN3PDE12applyStencilEP4GridS1_.295:
        call      __kmpc_fork_call                              #145.1
..___tag_value__ZN3PDE12applyStencilEP4GridS1_.296:
                                # LOE
..B12.160:                      # Preds ..B12.5
                                # Execution count [0.00e+00]
        addq      $32, %rsp                                     #145.1
	.cfi_def_cfa_offset 176
	.cfi_escape 0x2e, 0x00
        jmp       ..B12.9       # Prob 100%                     #145.1
                                # LOE
..B12.6:                        # Preds ..B12.4
                                # Execution count [0.00e+00]
        movl      $.2.736_2_kmpc_loc_struct_pack.1300, %edi     #145.1
        xorl      %eax, %eax                                    #145.1
        movl      164(%rsp), %esi                               #145.1
..___tag_value__ZN3PDE12applyStencilEP4GridS1_.299:
        call      __kmpc_serialized_parallel                    #145.1
..___tag_value__ZN3PDE12applyStencilEP4GridS1_.300:
                                # LOE
..B12.7:                        # Preds ..B12.6
                                # Execution count [0.00e+00]
        addq      $-32, %rsp                                    #145.1
	.cfi_def_cfa_offset 208
	.cfi_escape 0x2e, 0x20
        movl      $___kmpv_zero_ZN3PDE12applyStencilEP4GridS1__0, %esi #145.1
        lea       196(%rsp), %rdi                               #145.1
        lea       -4(%rdi), %rdx                                #145.1
        lea       36(%rsp), %rcx                                #145.1
        lea       -40(%rdx), %r8                                #145.1
        lea       -16(%rdx), %r9                                #145.1
        lea       -32(%rdx), %rax                               #145.1
        movq      %rax, (%rsp)                                  #145.1
        lea       8(%rax), %rbx                                 #145.1
        movq      %rbx, 8(%rsp)                                 #145.1
        lea       -120(%rax), %rbp                              #145.1
        movq      %rbp, 16(%rsp)                                #145.1
..___tag_value__ZN3PDE12applyStencilEP4GridS1_.303:
        call      L__ZN3PDE12applyStencilEP4GridS1__145__par_loop0_2.83 #145.1
..___tag_value__ZN3PDE12applyStencilEP4GridS1_.304:
                                # LOE
..B12.161:                      # Preds ..B12.7
                                # Execution count [0.00e+00]
        addq      $32, %rsp                                     #145.1
	.cfi_def_cfa_offset 176
	.cfi_escape 0x2e, 0x00
                                # LOE
..B12.8:                        # Preds ..B12.161
                                # Execution count [0.00e+00]
        movl      $.2.736_2_kmpc_loc_struct_pack.1300, %edi     #145.1
        xorl      %eax, %eax                                    #145.1
        movl      164(%rsp), %esi                               #145.1
..___tag_value__ZN3PDE12applyStencilEP4GridS1_.307:
        call      __kmpc_end_serialized_parallel                #145.1
..___tag_value__ZN3PDE12applyStencilEP4GridS1_.308:
                                # LOE
..B12.9:                        # Preds ..B12.160 ..B12.8
                                # Execution count [1.00e+00]
        xorl      %esi, %esi                                    #154.5
        lea       56(%rsp), %rdi                                #154.5
#       gettimeofday(timeval *, timezone *)
        call      gettimeofday                                  #154.5
                                # LOE
..B12.10:                       # Preds ..B12.9
                                # Execution count [1.00e+00]
        vxorpd    %xmm0, %xmm0, %xmm0                           #154.5
        vxorpd    %xmm1, %xmm1, %xmm1                           #154.5
        vcvtsi2sdq 64(%rsp), %xmm0, %xmm0                       #154.5
        vcvtsi2sdq 56(%rsp), %xmm1, %xmm1                       #154.5
        vmulsd    .L_2il0floatpacket.84(%rip), %xmm0, %xmm2     #154.5
        movslq    timer_id.26492.0.359(%rip), %rcx              #154.5
        vaddsd    %xmm2, %xmm1, %xmm3                           #154.5
        movq      fn_timer(%rip), %rax                          #154.5
        movq      fn_counts(%rip), %rdx                         #154.5
        movq      72(%rsp), %r15                                #155.1[spill]
	.cfi_restore 15
        movq      80(%rsp), %r14                                #155.1[spill]
	.cfi_restore 14
        movq      88(%rsp), %r13                                #155.1[spill]
	.cfi_restore 13
        movq      96(%rsp), %r12                                #155.1[spill]
	.cfi_restore 12
        movq      104(%rsp), %rbx                               #155.1[spill]
	.cfi_restore 3
        movq      112(%rsp), %rbp                               #155.1[spill]
	.cfi_restore 6
        incl      (%rdx,%rcx,4)                                 #154.5
        vsubsd    152(%rsp), %xmm3, %xmm4                       #154.5[spill]
        vaddsd    (%rax,%rcx,8), %xmm4, %xmm5                   #154.5
        vmovsd    %xmm5, (%rax,%rcx,8)                          #154.5
        addq      $168, %rsp                                    #155.1
	.cfi_def_cfa_offset 8
        ret                                                     #155.1
	.cfi_def_cfa_offset 176
                                # LOE
L__ZN3PDE12applyStencilEP4GridS1__145__par_loop0_2.83:
# parameter 1: %rdi
# parameter 2: %rsi
# parameter 3: %rdx
# parameter 4: %rcx
# parameter 5: %r8
# parameter 6: %r9
# parameter 7: 176 + %rsp
# parameter 8: 184 + %rsp
# parameter 9: 192 + %rsp
..B12.11:                       # Preds ..B12.0
                                # Execution count [1.00e+00]
        subq      $168, %rsp                                    #145.1
        movq      %rbx, 104(%rsp)                               #145.1[spill]
	.cfi_offset 3, -72
        movq      (%r8), %rbx                                   #145.1
        movl      (%rdx), %r8d                                  #145.1
        movq      184(%rsp), %r10                               #145.1
        movq      192(%rsp), %rax                               #145.1
        movq      176(%rsp), %r11                               #145.1
        movq      %r14, 80(%rsp)                                #145.1[spill]
	.cfi_offset 14, -96
        movl      (%rdi), %r14d                                 #145.1
        lea       -1(%r8), %edi                                 #146.16
        vmovsd    (%rax), %xmm0                                 #145.1
        vmovsd    (%r10), %xmm1                                 #145.1
        vmovsd    (%r9), %xmm2                                  #145.1
        movq      %rbp, 112(%rsp)                               #145.1[spill]
        movq      %r13, 88(%rsp)                                #145.1[spill]
        movq      %r15, 72(%rsp)                                #145.1[spill]
        movq      %r12, 96(%rsp)                                #145.1[spill]
        vmovsd    %xmm0, 40(%rsp)                               #145.1[spill]
        vmovsd    %xmm1, 32(%rsp)                               #145.1[spill]
	.cfi_offset 6, -64
	.cfi_offset 12, -80
	.cfi_offset 13, -88
	.cfi_offset 15, -104
        movq      (%r11), %r13                                  #145.1
        vmovsd    %xmm2, 48(%rsp)                               #145.1[spill]
        movl      (%rcx), %ebp                                  #145.1
        cmpl      $1, %edi                                      #147.5
        jle       ..B12.17      # Prob 10%                      #147.5
                                # LOE rbx r13 ebp r8d r14d
..B12.12:                       # Preds ..B12.11
                                # Execution count [5.00e+00]
        movl      $1, %r10d                                     #145.1
        addl      $-2, %r8d                                     #146.16
        movl      %r10d, 56(%rsp)                               #145.1
        movl      $.2.736_2_kmpc_loc_struct_pack.1300, %edi     #145.1
        movl      %r8d, 60(%rsp)                                #145.1
        movl      %r14d, %esi                                   #145.1
        movl      $0, 64(%rsp)                                  #145.1
        movl      $37, %edx                                     #145.1
        movl      %r10d, 68(%rsp)                               #145.1
        addq      $-16, %rsp                                    #145.1
	.cfi_def_cfa_offset 192
	.cfi_escape 0x2e, 0x10
        movl      %r10d, %ecx                                   #145.1
        movl      %r10d, %r9d                                   #145.1
        xorl      %eax, %eax                                    #145.1
        movl      %r10d, (%rsp)                                 #145.1
..___tag_value__ZN3PDE12applyStencilEP4GridS1_.326:
        call      __kmpc_dispatch_init_4                        #145.1
..___tag_value__ZN3PDE12applyStencilEP4GridS1_.327:
                                # LOE rbx r13 ebp r14d
..B12.162:                      # Preds ..B12.12
                                # Execution count [5.00e+00]
        addq      $16, %rsp                                     #145.1
	.cfi_def_cfa_offset 176
	.cfi_escape 0x2e, 0x00
                                # LOE rbx r13 ebp r14d
..B12.13:                       # Preds ..B12.162
                                # Execution count [0.00e+00]
        movslq    %ebp, %rax                                    #148.9
        lea       -1(%rbp), %edi                                #148.32
        addq      $-2, %rax                                     #148.32
        lea       64(%rsp), %rdx                                #145.1
        movl      %edi, (%rsp)                                  #145.1[spill]
        lea       -8(%rdx), %r12                                #145.1
        movq      %rbx, -56(%rdx)                               #145.1[spill]
        lea       -4(%rdx), %rbp                                #145.1
        movq      %r13, -48(%rdx)                               #145.1[spill]
        lea       4(%rdx), %r15                                 #145.1
        movq      %rax, %r13                                    #145.1
        movq      %rdx, %rbx                                    #145.1
        jmp       ..B12.14      # Prob 100%                     #145.1
                                # LOE rbx rbp r12 r13 r15 r14d
..B12.24:                       # Preds ..B12.23
                                # Execution count [9.00e-01]
        movl      24(%rsp), %r14d                               #[spill]
        lea       68(%rsp), %r15                                #
        lea       60(%rsp), %rbp                                #
        lea       56(%rsp), %r12                                #
        lea       64(%rsp), %rbx                                #
                                # LOE rbx rbp r12 r13 r15 r14d
..B12.14:                       # Preds ..B12.24 ..B12.13
                                # Execution count [0.00e+00]
        movl      $.2.736_2_kmpc_loc_struct_pack.1300, %edi     #145.1
        movl      %r14d, %esi                                   #145.1
        movq      %rbx, %rdx                                    #145.1
        movq      %r12, %rcx                                    #145.1
        movq      %rbp, %r8                                     #145.1
        movq      %r15, %r9                                     #145.1
        xorl      %eax, %eax                                    #145.1
..___tag_value__ZN3PDE12applyStencilEP4GridS1_.330:
        call      __kmpc_dispatch_next_4                        #145.1
..___tag_value__ZN3PDE12applyStencilEP4GridS1_.331:
                                # LOE rbx rbp r12 r13 r15 eax r14d
..B12.15:                       # Preds ..B12.14
                                # Execution count [0.00e+00]
        movl      56(%rsp), %edi                                #145.1
        movl      60(%rsp), %r11d                               #145.1
        testl     %eax, %eax                                    #145.1
        jne       ..B12.18      # Prob 50%                      #145.1
                                # LOE rbx rbp r12 r13 r15 edi r11d r14d
..B12.17:                       # Preds ..B12.15 ..B12.11
                                # Execution count [0.00e+00]
        movq      72(%rsp), %r15                                #145.1[spill]
	.cfi_restore 15
        movq      80(%rsp), %r14                                #145.1[spill]
	.cfi_restore 14
        movq      88(%rsp), %r13                                #145.1[spill]
	.cfi_restore 13
        movq      96(%rsp), %r12                                #145.1[spill]
	.cfi_restore 12
        movq      104(%rsp), %rbx                               #145.1[spill]
	.cfi_restore 3
        movq      112(%rsp), %rbp                               #145.1[spill]
	.cfi_restore 6
        addq      $168, %rsp                                    #145.1
	.cfi_def_cfa_offset 8
        ret                                                     #145.1
	.cfi_def_cfa_offset 176
	.cfi_offset 3, -72
	.cfi_offset 6, -64
	.cfi_offset 12, -80
	.cfi_offset 13, -88
	.cfi_offset 14, -96
	.cfi_offset 15, -104
                                # LOE
..B12.18:                       # Preds ..B12.15
                                # Execution count [9.00e-01]
        subl      %edi, %r11d                                   #145.1
        xorl      %eax, %eax                                    #146.5
        movl      %r14d, 24(%rsp)                               #[spill]
        incl      %r11d                                         #145.1
        vmovsd    48(%rsp), %xmm0                               #[spill]
        lea       -1(%rdi), %r10d                               #
        vmovsd    32(%rsp), %xmm1                               #[spill]
        vmovsd    40(%rsp), %xmm2                               #[spill]
        movl      (%rsp), %r12d                                 #[spill]
        movq      8(%rsp), %r8                                  #[spill]
        movq      16(%rsp), %r9                                 #[spill]
                                # LOE r8 r9 r13 eax edi r10d r11d r12d xmm0 xmm1 xmm2
..B12.19:                       # Preds ..B12.23 ..B12.18
                                # Execution count [5.00e+00]
        xorl      %ebp, %ebp                                    #148.9
        cmpl      $1, %r12d                                     #148.32
        jle       ..B12.23      # Prob 10%                      #148.32
                                # LOE rbp r8 r9 r13 eax edi r10d r11d r12d xmm0 xmm1 xmm2
..B12.20:                       # Preds ..B12.19
                                # Execution count [4.50e+00]
        movl      (%r9), %r15d                                  #150.100
        lea       -1(%rax,%rdi), %ebx                           #150.19
        imull     (%r8), %ebx                                   #150.19
        movl      %eax, %r14d                                   #150.100
        imull     %r15d, %r14d                                  #150.100
        addl      (%r8), %ebx                                   #150.19
        lea       (%r15,%r14), %ecx                             #150.35
        movslq    %ebx, %rbx                                    #150.19
        subl      %r15d, %r14d                                  #150.66
        movq      8(%r8), %rsi                                  #150.19
        movq      8(%r9), %rdx                                  #150.100
        lea       (%rsi,%rbx,8), %rbx                           #150.19
        movl      %r10d, %esi                                   #150.19
        imull     %r15d, %esi                                   #150.19
        imull     %edi, %r15d                                   #150.19
        addl      %ecx, %esi                                    #150.100
        addl      %r15d, %r14d                                  #150.66
        addl      %r15d, %ecx                                   #150.52
        movslq    %esi, %rsi                                    #150.35
        movslq    %r14d, %r14                                   #150.66
        movslq    %ecx, %rcx                                    #150.52
        lea       (%rdx,%rsi,8), %rsi                           #150.35
        lea       (%rdx,%r14,8), %r14                           #150.66
        lea       (%rdx,%rcx,8), %rdx                           #150.52
                                # LOE rdx rbx rbp rsi r8 r9 r13 r14 eax edi r10d r11d r12d xmm0 xmm1 xmm2
..B12.21:                       # Preds ..B12.21 ..B12.20
                                # Execution count [2.50e+01]
        vmovsd    8(%rdx,%rbp,8), %xmm3                         #150.52
        vmovsd    16(%rsi,%rbp,8), %xmm7                        #150.86
        vmulsd    8(%rsi,%rbp,8), %xmm0, %xmm5                  #150.35
        vaddsd    8(%r14,%rbp,8), %xmm3, %xmm4                  #150.66
        vaddsd    (%rsi,%rbp,8), %xmm7, %xmm8                   #150.100
        vmulsd    %xmm4, %xmm1, %xmm6                           #150.66
        vmulsd    %xmm8, %xmm2, %xmm10                          #150.100
        vsubsd    %xmm6, %xmm5, %xmm9                           #150.66
        vsubsd    %xmm10, %xmm9, %xmm11                         #150.100
        vmovsd    %xmm11, 8(%rbx,%rbp,8)                        #150.19
        incq      %rbp                                          #148.9
        cmpq      %r13, %rbp                                    #148.9
        jb        ..B12.21      # Prob 82%                      #148.9
                                # LOE rdx rbx rbp rsi r8 r9 r13 r14 eax edi r10d r11d r12d xmm0 xmm1 xmm2
..B12.23:                       # Preds ..B12.21 ..B12.19
                                # Execution count [5.00e+00]
        incl      %eax                                          #146.5
        cmpl      %r11d, %eax                                   #146.5
        jb        ..B12.19      # Prob 82%                      #146.5
        jmp       ..B12.24      # Prob 100%                     #146.5
                                # LOE r8 r9 r13 eax edi r10d r11d r12d xmm0 xmm1 xmm2
..B12.25:                       # Preds ..B12.1
                                # Execution count [1.60e-01]: Infreq
        movq      8+fn_timer(%rip), %rbp                        #132.5
        movq      %rbp, %rax                                    #132.5
        movq      fn_timer(%rip), %rsi                          #132.5
        subq      %rsi, %rax                                    #132.5
        sarq      $3, %rax                                      #132.5
        movl      %eax, timer_id.26492.0.359(%rip)              #132.5
        cmpq      16+fn_timer(%rip), %rbp                       #132.5
        jne       ..B12.41      # Prob 27%                      #132.5
                                # LOE rax rbp rsi r15
..B12.27:                       # Preds ..B12.25
                                # Execution count [1.15e-01]: Infreq
        movl      $1, %r12d                                     #132.5
        cmpq      $1, %rax                                      #132.5
        cmovae    %rax, %r12                                    #132.5
        addq      %rax, %r12                                    #132.5
        cmpq      %rax, %r12                                    #132.5
        jb        ..B12.30      # Prob 78%                      #132.5
                                # LOE rbp rsi r12 r15
..B12.28:                       # Preds ..B12.27
                                # Execution count [2.53e-02]: Infreq
        movq      $0x1fffffffffffffff, %rax                     #132.5
        cmpq      %rax, %r12                                    #132.5
        jbe       ..B12.31      # Prob 78%                      #132.5
                                # LOE rbp rsi r12 r15
..B12.30:                       # Preds ..B12.27 ..B12.28
                                # Execution count [9.52e-02]: Infreq
        movq      $0x1fffffffffffffff, %r12                     #132.5
                                # LOE rbp rsi r12 r15
..B12.31:                       # Preds ..B12.28 ..B12.30
                                # Execution count [1.15e-01]: Infreq
        testq     %r12, %r12                                    #132.5
        jne       ..B12.102     # Prob 5%                       #132.5
                                # LOE rbp rsi r12 r15
..B12.32:                       # Preds ..B12.31
                                # Execution count [1.10e-01]: Infreq
        xorl      %ebx, %ebx                                    #132.5
        xorl      %r12d, %r12d                                  #132.5
                                # LOE rbx rbp rsi r12 r15
..B12.33:                       # Preds ..B12.104 ..B12.32
                                # Execution count [1.15e-01]: Infreq
        subq      %rsi, %rbp                                    #132.5
        sarq      $3, %rbp                                      #132.5
        lea       (%rbx,%rbp,8), %rax                           #132.5
        lea       (,%rbp,8), %rdx                               #132.5
        testq     %rax, %rax                                    #132.5
        je        ..B12.35      # Prob 32%                      #132.5
                                # LOE rdx rbx rbp rsi r12 r15
..B12.34:                       # Preds ..B12.33
                                # Execution count [7.78e-02]: Infreq
        movq      $0, (%rbx,%rdx)                               #132.5
                                # LOE rdx rbx rbp rsi r12 r15
..B12.35:                       # Preds ..B12.33 ..B12.34
                                # Execution count [1.15e-01]: Infreq
        testq     %rbp, %rbp                                    #132.5
        je        ..B12.38      # Prob 78%                      #132.5
                                # LOE rdx rbx rbp rsi r12 r15
..B12.36:                       # Preds ..B12.35
                                # Execution count [2.54e-02]: Infreq
        movq      %rbx, %rdi                                    #132.5
        call      __intel_ssse3_rep_memmove                     #132.5
                                # LOE rbx rbp r12 r15
..B12.37:                       # Preds ..B12.36
                                # Execution count [2.54e-02]: Infreq
        movq      fn_timer(%rip), %rsi                          #132.5
                                # LOE rbx rbp rsi r12 r15
..B12.38:                       # Preds ..B12.37 ..B12.35
                                # Execution count [1.15e-01]: Infreq
        testq     %rsi, %rsi                                    #132.5
        je        ..B12.40      # Prob 72%                      #132.5
                                # LOE rbx rbp rsi r12 r15
..B12.39:                       # Preds ..B12.38
                                # Execution count [3.21e-02]: Infreq
        movq      %rsi, %rdi                                    #132.5
#       operator delete(void *)
        call      _ZdlPv                                        #132.5
                                # LOE rbx rbp r12 r15
..B12.40:                       # Preds ..B12.39 ..B12.38
                                # Execution count [1.15e-01]: Infreq
        movq      %rbx, fn_timer(%rip)                          #132.5
        lea       8(%rbx,%rbp,8), %rax                          #132.5
        addq      %r12, %rbx                                    #132.5
        movq      %rax, 8+fn_timer(%rip)                        #132.5
        movq      %rbx, 16+fn_timer(%rip)                       #132.5
        jmp       ..B12.44      # Prob 100%                     #132.5
                                # LOE r15
..B12.41:                       # Preds ..B12.25
                                # Execution count [4.46e-02]: Infreq
        testq     %rbp, %rbp                                    #132.5
        je        ..B12.43      # Prob 32%                      #132.5
                                # LOE rbp r15
..B12.42:                       # Preds ..B12.41
                                # Execution count [3.00e-02]: Infreq
        movq      $0, (%rbp)                                    #132.5
                                # LOE rbp r15
..B12.43:                       # Preds ..B12.41 ..B12.42
                                # Execution count [4.46e-02]: Infreq
        addq      $8, %rbp                                      #132.5
        movq      %rbp, 8+fn_timer(%rip)                        #132.5
                                # LOE r15
..B12.44:                       # Preds ..B12.43 ..B12.40
                                # Execution count [1.60e-01]: Infreq
        movq      8+fn_counts(%rip), %rbp                       #132.5
        cmpq      16+fn_counts(%rip), %rbp                      #132.5
        jne       ..B12.60      # Prob 27%                      #132.5
                                # LOE rbp r15
..B12.45:                       # Preds ..B12.44
                                # Execution count [1.15e-01]: Infreq
        movq      %rbp, %rax                                    #132.5
        movq      fn_counts(%rip), %rsi                         #132.5
        subq      %rsi, %rax                                    #132.5
        sarq      $2, %rax                                      #132.5
                                # LOE rax rbp rsi r15
..B12.46:                       # Preds ..B12.45
                                # Execution count [1.15e-01]: Infreq
        movl      $1, %r12d                                     #132.5
        cmpq      $1, %rax                                      #132.5
        cmovae    %rax, %r12                                    #132.5
        addq      %rax, %r12                                    #132.5
        cmpq      %rax, %r12                                    #132.5
        jb        ..B12.49      # Prob 78%                      #132.5
                                # LOE rbp rsi r12 r15
..B12.47:                       # Preds ..B12.46
                                # Execution count [2.53e-02]: Infreq
        movq      $0x3fffffffffffffff, %rax                     #132.5
        cmpq      %rax, %r12                                    #132.5
        jbe       ..B12.50      # Prob 78%                      #132.5
                                # LOE rbp rsi r12 r15
..B12.49:                       # Preds ..B12.46 ..B12.47
                                # Execution count [9.52e-02]: Infreq
        movq      $0x3fffffffffffffff, %r12                     #132.5
                                # LOE rbp rsi r12 r15
..B12.50:                       # Preds ..B12.47 ..B12.49
                                # Execution count [1.15e-01]: Infreq
        testq     %r12, %r12                                    #132.5
        jne       ..B12.107     # Prob 5%                       #132.5
                                # LOE rbp rsi r12 r15
..B12.51:                       # Preds ..B12.50
                                # Execution count [1.10e-01]: Infreq
        xorl      %ebx, %ebx                                    #132.5
        xorl      %r12d, %r12d                                  #132.5
                                # LOE rbx rbp rsi r12 r15
..B12.52:                       # Preds ..B12.109 ..B12.51
                                # Execution count [1.15e-01]: Infreq
        subq      %rsi, %rbp                                    #132.5
        sarq      $2, %rbp                                      #132.5
        lea       (%rbx,%rbp,4), %rax                           #132.5
        lea       (,%rbp,4), %rdx                               #132.5
        testq     %rax, %rax                                    #132.5
        je        ..B12.54      # Prob 32%                      #132.5
                                # LOE rdx rbx rbp rsi r12 r15
..B12.53:                       # Preds ..B12.52
                                # Execution count [7.78e-02]: Infreq
        movl      $0, (%rbx,%rdx)                               #132.5
                                # LOE rdx rbx rbp rsi r12 r15
..B12.54:                       # Preds ..B12.52 ..B12.53
                                # Execution count [1.15e-01]: Infreq
        testq     %rbp, %rbp                                    #132.5
        je        ..B12.57      # Prob 78%                      #132.5
                                # LOE rdx rbx rbp rsi r12 r15
..B12.55:                       # Preds ..B12.54
                                # Execution count [2.54e-02]: Infreq
        movq      %rbx, %rdi                                    #132.5
        call      __intel_ssse3_rep_memmove                     #132.5
                                # LOE rbx rbp r12 r15
..B12.56:                       # Preds ..B12.55
                                # Execution count [2.54e-02]: Infreq
        movq      fn_counts(%rip), %rsi                         #132.5
                                # LOE rbx rbp rsi r12 r15
..B12.57:                       # Preds ..B12.56 ..B12.54
                                # Execution count [1.15e-01]: Infreq
        testq     %rsi, %rsi                                    #132.5
        je        ..B12.59      # Prob 72%                      #132.5
                                # LOE rbx rbp rsi r12 r15
..B12.58:                       # Preds ..B12.57
                                # Execution count [3.21e-02]: Infreq
        movq      %rsi, %rdi                                    #132.5
#       operator delete(void *)
        call      _ZdlPv                                        #132.5
                                # LOE rbx rbp r12 r15
..B12.59:                       # Preds ..B12.58 ..B12.57
                                # Execution count [1.15e-01]: Infreq
        movq      %rbx, fn_counts(%rip)                         #132.5
        lea       4(%rbx,%rbp,4), %rax                          #132.5
        addq      %r12, %rbx                                    #132.5
        movq      %rax, 8+fn_counts(%rip)                       #132.5
        movq      %rbx, 16+fn_counts(%rip)                      #132.5
        jmp       ..B12.63      # Prob 100%                     #132.5
                                # LOE r15
..B12.60:                       # Preds ..B12.44
                                # Execution count [4.46e-02]: Infreq
        testq     %rbp, %rbp                                    #132.5
        je        ..B12.62      # Prob 32%                      #132.5
                                # LOE rbp r15
..B12.61:                       # Preds ..B12.60
                                # Execution count [3.00e-02]: Infreq
        movl      $0, (%rbp)                                    #132.5
                                # LOE rbp r15
..B12.62:                       # Preds ..B12.60 ..B12.61
                                # Execution count [4.46e-02]: Infreq
        addq      $4, %rbp                                      #132.5
        movq      %rbp, 8+fn_counts(%rip)                       #132.5
                                # LOE r15
..B12.63:                       # Preds ..B12.62 ..B12.59
                                # Execution count [1.60e-01]: Infreq
        movl      $.L_2__STRING.1, %esi                         #132.5
        lea       16(%rsp), %rdi                                #132.5
        movl      $.L_2__STRING.2, %edx                         #132.5
        xorl      %eax, %eax                                    #132.5
..___tag_value__ZN3PDE12applyStencilEP4GridS1_.346:
#       asprintf(char **, const char *, ...)
        call      asprintf                                      #132.5
..___tag_value__ZN3PDE12applyStencilEP4GridS1_.347:
                                # LOE r15
..B12.64:                       # Preds ..B12.63
                                # Execution count [1.60e-01]: Infreq
        movq      16(%rsp), %rsi                                #132.5
        lea       24(%rsp), %rdi                                #132.5
        lea       3(%rsp), %rdx                                 #132.5
..___tag_value__ZN3PDE12applyStencilEP4GridS1_.348:
#       std::basic_string<char, std::char_traits<char>, std::allocator<char>>::basic_string(std::basic_string<char, std::char_traits<char>, std::allocator<char>> *, const char *, const std::allocator<char> &)
        call      _ZNSsC1EPKcRKSaIcE                            #132.5
..___tag_value__ZN3PDE12applyStencilEP4GridS1_.349:
                                # LOE r15
..B12.65:                       # Preds ..B12.64
                                # Execution count [1.60e-01]: Infreq
        movq      8+fn_name(%rip), %rax                         #132.5
        cmpq      16+fn_name(%rip), %rax                        #132.5
        jne       ..B12.92      # Prob 27%                      #132.5
                                # LOE rax r15
..B12.66:                       # Preds ..B12.65
                                # Execution count [1.15e-01]: Infreq
        movq      %rax, %rdx                                    #132.5
        movq      fn_name(%rip), %r14                           #132.5
        subq      %r14, %rdx                                    #132.5
        sarq      $3, %rdx                                      #132.5
                                # LOE rax rdx r14 r15
..B12.67:                       # Preds ..B12.66
                                # Execution count [1.15e-01]: Infreq
        movl      $1, %r12d                                     #132.5
        cmpq      $1, %rdx                                      #132.5
        cmovae    %rdx, %r12                                    #132.5
        addq      %rdx, %r12                                    #132.5
        cmpq      %rdx, %r12                                    #132.5
        jb        ..B12.70      # Prob 78%                      #132.5
                                # LOE rax r12 r14 r15
..B12.68:                       # Preds ..B12.67
                                # Execution count [2.53e-02]: Infreq
        movq      $0x1fffffffffffffff, %rdx                     #132.5
        cmpq      %rdx, %r12                                    #132.5
        jbe       ..B12.71      # Prob 78%                      #132.5
                                # LOE rax r12 r14 r15
..B12.70:                       # Preds ..B12.67 ..B12.68
                                # Execution count [9.52e-02]: Infreq
        movq      $0x1fffffffffffffff, %r12                     #132.5
                                # LOE rax r12 r14 r15
..B12.71:                       # Preds ..B12.68 ..B12.70
                                # Execution count [1.15e-01]: Infreq
        testq     %r12, %r12                                    #132.5
        jne       ..B12.120     # Prob 5%                       #132.5
                                # LOE rax r12 r14 r15
..B12.72:                       # Preds ..B12.71
                                # Execution count [1.10e-01]: Infreq
        xorl      %r13d, %r13d                                  #132.5
        xorl      %r12d, %r12d                                  #132.5
                                # LOE rax r12 r13 r14 r15
..B12.73:                       # Preds ..B12.123 ..B12.72
                                # Execution count [1.15e-01]: Infreq
        movq      %rax, %rcx                                    #132.5
        subq      %r14, %rcx                                    #132.5
        andq      $-8, %rcx                                     #132.5
        addq      %r13, %rcx                                    #132.5
        je        ..B12.75      # Prob 32%                      #132.5
                                # LOE rax rcx r12 r13 r14 r15
..B12.74:                       # Preds ..B12.73
                                # Execution count [7.78e-02]: Infreq
        movq      24(%rsp), %rdx                                #132.5
        movq      $_ZNSs4_Rep20_S_empty_rep_storageE+24, 24(%rsp) #132.5
        movq      %rdx, (%rcx)                                  #132.5
                                # LOE rax r12 r13 r14 r15
..B12.75:                       # Preds ..B12.73 ..B12.74
                                # Execution count [1.15e-01]: Infreq
        movq      %r13, %rbx                                    #132.5
        cmpq      %rax, %r14                                    #132.5
        je        ..B12.84      # Prob 4%                       #132.5
                                # LOE rax rbx r12 r13 r14 r15
..B12.76:                       # Preds ..B12.75
                                # Execution count [5.53e-02]: Infreq
        movl      $_ZNSs4_Rep20_S_empty_rep_storageE+24, %ecx   #132.5
        xorl      %edx, %edx                                    #132.5
                                # LOE rax rdx rcx r12 r13 r14 r15
..B12.77:                       # Preds ..B12.82 ..B12.76
                                # Execution count [3.07e-01]: Infreq
        addq      $16, %rdx                                     #132.5
        lea       (%r13,%rdx), %rsi                             #132.5
        lea       (%r14,%rdx), %r8                              #132.5
        cmpq      $16, %rsi                                     #132.5
        je        ..B12.80      # Prob 32%                      #132.5
                                # LOE rax rdx rcx rsi r8 r12 r13 r14 r15
..B12.78:                       # Preds ..B12.77
                                # Execution count [2.07e-01]: Infreq
        movq      -16(%r8), %rbx                                #132.5
        lea       -8(%r14,%rdx), %rbp                           #132.5
        movq      %rbx, -16(%rsi)                               #132.5
        lea       -8(%r13,%rdx), %rbx                           #132.5
        movq      %rcx, -16(%r8)                                #132.5
        cmpq      %rax, %rbp                                    #132.5
        je        ..B12.84      # Prob 18%                      #132.5
                                # LOE rax rdx rcx rbx rsi r8 r12 r13 r14 r15
..B12.79:                       # Preds ..B12.78
                                # Execution count [0.00e+00]: Infreq
        cmpq      $8, %rsi                                      #132.5
        jne       ..B12.81      # Prob 67%                      #132.5
        jmp       ..B12.82      # Prob 100%                     #132.5
                                # LOE rax rdx rcx rsi r8 r12 r13 r14 r15
..B12.80:                       # Preds ..B12.77
                                # Execution count [1.00e-01]: Infreq
        movl      $8, %ebx                                      #132.5
        lea       -8(%r14,%rdx), %rbp                           #132.5
        cmpq      %rax, %rbp                                    #132.5
        je        ..B12.84      # Prob 18%                      #132.5
                                # LOE rax rdx rcx rbx rsi r8 r12 r13 r14 r15
..B12.81:                       # Preds ..B12.80 ..B12.79
                                # Execution count [2.07e-01]: Infreq
        movq      -8(%r8), %rbx                                 #132.5
        movq      %rbx, -8(%rsi)                                #132.5
        movq      %rcx, -8(%r8)                                 #132.5
                                # LOE rax rdx rcx rsi r8 r12 r13 r14 r15
..B12.82:                       # Preds ..B12.79 ..B12.81
                                # Execution count [3.07e-01]: Infreq
        movq      %rsi, %rbx                                    #132.5
        cmpq      %rax, %r8                                     #132.5
        jne       ..B12.77      # Prob 82%                      #132.5
                                # LOE rax rdx rcx rbx r12 r13 r14 r15
..B12.84:                       # Preds ..B12.78 ..B12.80 ..B12.82 ..B12.75
                                # Execution count [1.15e-01]: Infreq
        cmpq      %rax, %r14                                    #132.5
        je        ..B12.178     # Prob 1%                       #132.5
                                # LOE rax rbx r12 r13 r14 r15
..B12.85:                       # Preds ..B12.84
                                # Execution count [1.14e-01]: Infreq
        movq      %r15, 8(%rsp)                                 #132.5[spill]
        movl      $_ZNSs4_Rep20_S_empty_rep_storageE, %ebp      #132.5
        movq      %rax, %r15                                    #132.5
                                # LOE rbx rbp r12 r13 r14 r15
..B12.86:                       # Preds ..B12.87 ..B12.85
                                # Execution count [6.32e-01]: Infreq
        movq      (%r14), %rdi                                  #132.5
        lea       -24(%rdi), %rsi                               #132.5
        cmpq      %rbp, %rsi                                    #132.5
        jne       ..B12.114     # Prob 5%                       #132.5
                                # LOE rbx rbp rsi rdi r12 r13 r14 r15
..B12.87:                       # Preds ..B12.119 ..B12.118 ..B12.86
                                # Execution count [6.32e-01]: Infreq
        addq      $8, %r14                                      #132.5
        cmpq      %r15, %r14                                    #132.5
        jne       ..B12.86      # Prob 82%                      #132.5
                                # LOE rbx rbp r12 r13 r14 r15
..B12.88:                       # Preds ..B12.87
                                # Execution count [1.14e-01]: Infreq
        movq      8(%rsp), %r15                                 #[spill]
        movq      fn_name(%rip), %r14                           #132.5
                                # LOE rbx rbp r12 r13 r14 r15
..B12.89:                       # Preds ..B12.88 ..B12.178
                                # Execution count [1.15e-01]: Infreq
        testq     %r14, %r14                                    #132.5
        je        ..B12.91      # Prob 72%                      #132.5
                                # LOE rbx rbp r12 r13 r14 r15
..B12.90:                       # Preds ..B12.89
                                # Execution count [3.21e-02]: Infreq
        movq      %r14, %rdi                                    #132.5
#       operator delete(void *)
        call      _ZdlPv                                        #132.5
                                # LOE rbx rbp r12 r13 r15
..B12.91:                       # Preds ..B12.90 ..B12.89
                                # Execution count [1.15e-01]: Infreq
        addq      $8, %rbx                                      #132.5
        addq      %r13, %r12                                    #132.5
        movq      %r13, fn_name(%rip)                           #132.5
        movq      %rbx, 8+fn_name(%rip)                         #132.5
        movq      %r12, 16+fn_name(%rip)                        #132.5
        movq      24(%rsp), %rdi                                #132.5
        jmp       ..B12.96      # Prob 100%                     #132.5
                                # LOE rbp rdi r15
..B12.92:                       # Preds ..B12.65
                                # Execution count [4.46e-02]: Infreq
        testq     %rax, %rax                                    #132.5
        je        ..B12.94      # Prob 32%                      #132.5
                                # LOE rax r15
..B12.93:                       # Preds ..B12.92
                                # Execution count [3.00e-02]: Infreq
        movq      24(%rsp), %rdx                                #132.5
        movl      $_ZNSs4_Rep20_S_empty_rep_storageE+24, %edi   #132.5
        movq      %rdx, (%rax)                                  #132.5
        movq      %rdi, 24(%rsp)                                #132.5
        jmp       ..B12.95      # Prob 100%                     #132.5
                                # LOE rax rdi r15
..B12.94:                       # Preds ..B12.92
                                # Execution count [1.45e-02]: Infreq
        movq      24(%rsp), %rdi                                #132.5
                                # LOE rax rdi r15
..B12.95:                       # Preds ..B12.93 ..B12.94
                                # Execution count [4.46e-02]: Infreq
        addq      $8, %rax                                      #132.5
        movl      $_ZNSs4_Rep20_S_empty_rep_storageE, %ebp      #132.5
        movq      %rax, 8+fn_name(%rip)                         #132.5
                                # LOE rbp rdi r15
..B12.96:                       # Preds ..B12.95 ..B12.91
                                # Execution count [1.60e-01]: Infreq
        lea       -24(%rdi), %rdx                               #132.5
        cmpq      %rbp, %rdx                                    #132.5
        jne       ..B12.148     # Prob 5%                       #132.5
                                # LOE rdx rbp rdi r15
..B12.97:                       # Preds ..B12.153 ..B12.152 ..B12.96
                                # Execution count [1.60e-01]: Infreq
        movq      16(%rsp), %rsi                                #132.5
        lea       32(%rsp), %rdi                                #132.5
        movl      timer_id.26492.0.359(%rip), %ebx              #132.5
        lea       3(%rsp), %rdx                                 #132.5
..___tag_value__ZN3PDE12applyStencilEP4GridS1_.350:
#       std::basic_string<char, std::char_traits<char>, std::allocator<char>>::basic_string(std::basic_string<char, std::char_traits<char>, std::allocator<char>> *, const char *, const std::allocator<char> &)
        call      _ZNSsC1EPKcRKSaIcE                            #132.5
..___tag_value__ZN3PDE12applyStencilEP4GridS1_.351:
                                # LOE rbp r15 ebx
..B12.98:                       # Preds ..B12.97
                                # Execution count [1.60e-01]: Infreq
        movl      $fn_map, %edi                                 #132.5
        lea       32(%rsp), %rsi                                #132.5
..___tag_value__ZN3PDE12applyStencilEP4GridS1_.352:
#       std::map<std::string, int, std::less<std::string>, std::allocator<std::pair<const std::string, int>>>::operator[](std::map<std::string, int, std::less<std::string>, std::allocator<std::pair<const std::string, int>>> *, std::map<std::string, int, std::less<std::string>, std::allocator<std::pair<const std::string, int>>>::key_type &&)
        call      _ZNSt3mapISsiSt4lessISsESaISt4pairIKSsiEEEixEOSs #132.5
..___tag_value__ZN3PDE12applyStencilEP4GridS1_.353:
                                # LOE rax rbp r15 ebx
..B12.100:                      # Preds ..B12.98
                                # Execution count [1.60e-01]: Infreq
        movl      %ebx, (%rax)                                  #132.5
        movq      32(%rsp), %rdi                                #132.5
        lea       -24(%rdi), %rdx                               #132.5
        cmpq      %rbp, %rdx                                    #132.5
        jne       ..B12.133     # Prob 5%                       #132.5
        jmp       ..B12.2       # Prob 100%                     #132.5
                                # LOE rdx rdi r15
..B12.102:                      # Preds ..B12.31
                                # Execution count [5.77e-03]: Infreq
        movq      $0x1fffffffffffffff, %rax                     #132.5
        cmpq      %rax, %r12                                    #132.5
        ja        ..B12.105     # Prob 0%                       #132.5
                                # LOE r12 r15
..B12.103:                      # Preds ..B12.102
                                # Execution count [5.74e-03]: Infreq
        shlq      $3, %r12                                      #132.5
        movq      %r12, %rdi                                    #132.5
..___tag_value__ZN3PDE12applyStencilEP4GridS1_.354:
#       operator new(std::size_t)
        call      _Znwm                                         #132.5
..___tag_value__ZN3PDE12applyStencilEP4GridS1_.355:
                                # LOE rax r12 r15
..B12.164:                      # Preds ..B12.103
                                # Execution count [5.74e-03]: Infreq
        movq      %rax, %rbx                                    #132.5
                                # LOE rbx r12 r15
..B12.104:                      # Preds ..B12.164
                                # Execution count [5.77e-03]: Infreq
        movq      fn_timer(%rip), %rsi                          #132.5
        movq      8+fn_timer(%rip), %rbp                        #132.5
        jmp       ..B12.33      # Prob 100%                     #132.5
                                # LOE rbx rbp rsi r12 r15
..B12.105:                      # Preds ..B12.107 ..B12.102
                                # Execution count [2.89e-05]: Infreq
..___tag_value__ZN3PDE12applyStencilEP4GridS1_.356:
#       std::__throw_bad_alloc()
        call      _ZSt17__throw_bad_allocv                      #132.5
..___tag_value__ZN3PDE12applyStencilEP4GridS1_.357:
                                # LOE
..B12.107:                      # Preds ..B12.50
                                # Execution count [5.77e-03]: Infreq
        movq      $0x3fffffffffffffff, %rax                     #132.5
        cmpq      %rax, %r12                                    #132.5
        ja        ..B12.105     # Prob 0%                       #132.5
                                # LOE r12 r15
..B12.108:                      # Preds ..B12.107
                                # Execution count [5.74e-03]: Infreq
        shlq      $2, %r12                                      #132.5
        movq      %r12, %rdi                                    #132.5
..___tag_value__ZN3PDE12applyStencilEP4GridS1_.358:
#       operator new(std::size_t)
        call      _Znwm                                         #132.5
..___tag_value__ZN3PDE12applyStencilEP4GridS1_.359:
                                # LOE rax r12 r15
..B12.165:                      # Preds ..B12.108
                                # Execution count [5.74e-03]: Infreq
        movq      %rax, %rbx                                    #132.5
                                # LOE rbx r12 r15
..B12.109:                      # Preds ..B12.165
                                # Execution count [5.77e-03]: Infreq
        movq      fn_counts(%rip), %rsi                         #132.5
        movq      8+fn_counts(%rip), %rbp                       #132.5
        jmp       ..B12.52      # Prob 100%                     #132.5
                                # LOE rbx rbp rsi r12 r15
..B12.114:                      # Preds ..B12.86
                                # Execution count [3.16e-02]: Infreq
        movl      $__pthread_key_create, %edx                   #132.5
        testq     %rdx, %rdx                                    #132.5
        je        ..B12.117     # Prob 50%                      #132.5
                                # LOE rbx rbp rsi rdi r12 r13 r14 r15
..B12.115:                      # Preds ..B12.114
                                # Execution count [1.58e-02]: Infreq
        addq      $-8, %rdi                                     #132.5
        movl      $-1, %ecx                                     #132.5
        lock      
        xaddl     %ecx, (%rdi)                                  #132.5
        jmp       ..B12.118     # Prob 100%                     #132.5
                                # LOE rbx rbp rsi r12 r13 r14 r15 ecx
..B12.117:                      # Preds ..B12.114
                                # Execution count [1.58e-02]: Infreq
        movl      16(%rsi), %ecx                                #132.5
        lea       -1(%rcx), %edx                                #132.5
        movl      %edx, 16(%rsi)                                #132.5
                                # LOE rbx rbp rsi r12 r13 r14 r15 ecx
..B12.118:                      # Preds ..B12.115 ..B12.117
                                # Execution count [3.16e-02]: Infreq
        testl     %ecx, %ecx                                    #132.5
        jg        ..B12.87      # Prob 94%                      #132.5
                                # LOE rbx rbp rsi r12 r13 r14 r15
..B12.119:                      # Preds ..B12.118
                                # Execution count [1.61e-03]: Infreq
        movq      %rsi, %rdi                                    #132.5
        lea       2(%rsp), %rsi                                 #132.5
#       std::basic_string<char, std::char_traits<char>, std::allocator<char>>::_Rep::_M_destroy(std::basic_string<char, std::char_traits<char>, std::allocator<char>>::_Rep *, const std::allocator<char> &)
        call      _ZNSs4_Rep10_M_destroyERKSaIcE                #132.5
        jmp       ..B12.87      # Prob 100%                     #132.5
                                # LOE rbx rbp r12 r13 r14 r15
..B12.120:                      # Preds ..B12.71
                                # Execution count [5.77e-03]: Infreq
        movq      $0x1fffffffffffffff, %rax                     #132.5
        cmpq      %rax, %r12                                    #132.5
        ja        ..B12.131     # Prob 0%                       #132.5
                                # LOE r12 r15
..B12.121:                      # Preds ..B12.120
                                # Execution count [5.74e-03]: Infreq
        shlq      $3, %r12                                      #132.5
        movq      %r12, %rdi                                    #132.5
..___tag_value__ZN3PDE12applyStencilEP4GridS1_.360:
#       operator new(std::size_t)
        call      _Znwm                                         #132.5
..___tag_value__ZN3PDE12applyStencilEP4GridS1_.361:
                                # LOE rax r12 r15
..B12.122:                      # Preds ..B12.121
                                # Execution count [5.74e-03]: Infreq
        movq      %rax, %r13                                    #132.5
                                # LOE r12 r13 r15
..B12.123:                      # Preds ..B12.122
                                # Execution count [5.77e-03]: Infreq
        movq      8+fn_name(%rip), %rax                         #132.5
        movq      fn_name(%rip), %r14                           #132.5
        jmp       ..B12.73      # Prob 100%                     #132.5
                                # LOE rax r12 r13 r14 r15
..___tag_value__ZN3PDE12applyStencilEP4GridS1_.273:
..B12.124:                      # Preds ..B12.121 ..B12.131
                                # Execution count [0.00e+00]: Infreq
        movq      %rax, 8(%rsp)                                 #132.5
                                # LOE
..B12.125:                      # Preds ..B12.124
                                # Execution count [0.00e+00]: Infreq
        movl      $.2.736_2_kmpc_loc_struct_pack.1172, %edi     #132.5
        call      __kmpc_global_thread_num                      #132.5
                                # LOE eax
..B12.167:                      # Preds ..B12.125
                                # Execution count [0.00e+00]: Infreq
        movq      24(%rsp), %rdi                                #132.5
        movl      $_ZNSs4_Rep20_S_empty_rep_storageE, %edx      #132.5
        movl      %eax, 164(%rsp)                               #132.5
        lea       -24(%rdi), %rbx                               #132.5
        cmpq      %rdx, %rbx                                    #132.5
        jne       ..B12.128     # Prob 5%                       #132.5
                                # LOE rbx rdi
..B12.127:                      # Preds ..B12.172 ..B12.145 ..B12.170 ..B12.144 ..B12.129
                                #       ..B12.167 ..B12.130 ..B12.174
                                # Execution count [0.00e+00]: Infreq
        movq      8(%rsp), %rdi                                 #132.5
..___tag_value__ZN3PDE12applyStencilEP4GridS1_.362:
        call      _Unwind_Resume                                #132.5
..___tag_value__ZN3PDE12applyStencilEP4GridS1_.363:
                                # LOE
..B12.128:                      # Preds ..B12.167
                                # Execution count [0.00e+00]: Infreq
        addq      $-8, %rdi                                     #132.5
        xorl      %esi, %esi                                    #132.5
        decl      %esi                                          #132.5
..___tag_value__ZN3PDE12applyStencilEP4GridS1_.364:
#       __gnu_cxx::__exchange_and_add_dispatch(_Atomic_word *, int)
        call      _ZN33_INTERNAL_11_src_PDE_cpp_f2a32a069__gnu_cxx27__exchange_and_add_dispatchEPii #132.5
..___tag_value__ZN3PDE12applyStencilEP4GridS1_.365:
                                # LOE rbx eax
..B12.129:                      # Preds ..B12.128
                                # Execution count [0.00e+00]: Infreq
        testl     %eax, %eax                                    #132.5
        jg        ..B12.127     # Prob 94%                      #132.5
                                # LOE rbx
..B12.130:                      # Preds ..B12.129
                                # Execution count [0.00e+00]: Infreq
        movq      %rbx, %rdi                                    #132.5
        lea       (%rsp), %rsi                                  #132.5
#       std::basic_string<char, std::char_traits<char>, std::allocator<char>>::_Rep::_M_destroy(std::basic_string<char, std::char_traits<char>, std::allocator<char>>::_Rep *, const std::allocator<char> &)
        call      _ZNSs4_Rep10_M_destroyERKSaIcE                #132.5
        jmp       ..B12.127     # Prob 100%                     #132.5
                                # LOE
..B12.131:                      # Preds ..B12.120
                                # Execution count [2.89e-05]: Infreq
..___tag_value__ZN3PDE12applyStencilEP4GridS1_.366:
#       std::__throw_bad_alloc()
        call      _ZSt17__throw_bad_allocv                      #132.5
..___tag_value__ZN3PDE12applyStencilEP4GridS1_.367:
                                # LOE
..B12.133:                      # Preds ..B12.100
                                # Execution count [8.00e-03]: Infreq
        movl      $__pthread_key_create, %eax                   #132.5
        testq     %rax, %rax                                    #132.5
        je        ..B12.136     # Prob 50%                      #132.5
                                # LOE rdx rdi r15
..B12.134:                      # Preds ..B12.133
                                # Execution count [4.00e-03]: Infreq
        addq      $-8, %rdi                                     #132.5
        movl      $-1, %ecx                                     #132.5
        lock      
        xaddl     %ecx, (%rdi)                                  #132.5
        jmp       ..B12.137     # Prob 100%                     #132.5
                                # LOE rdx r15 ecx
..B12.136:                      # Preds ..B12.133
                                # Execution count [4.00e-03]: Infreq
        movl      16(%rdx), %ecx                                #132.5
        lea       -1(%rcx), %eax                                #132.5
        movl      %eax, 16(%rdx)                                #132.5
                                # LOE rdx r15 ecx
..B12.137:                      # Preds ..B12.134 ..B12.136
                                # Execution count [8.00e-03]: Infreq
        testl     %ecx, %ecx                                    #132.5
        jg        ..B12.2       # Prob 94%                      #132.5
                                # LOE rdx r15
..B12.138:                      # Preds ..B12.137
                                # Execution count [4.08e-04]: Infreq
        movq      %rdx, %rdi                                    #132.5
        lea       (%rsp), %rsi                                  #132.5
#       std::basic_string<char, std::char_traits<char>, std::allocator<char>>::_Rep::_M_destroy(std::basic_string<char, std::char_traits<char>, std::allocator<char>>::_Rep *, const std::allocator<char> &)
        call      _ZNSs4_Rep10_M_destroyERKSaIcE                #132.5
        jmp       ..B12.2       # Prob 100%                     #132.5
                                # LOE r15
..___tag_value__ZN3PDE12applyStencilEP4GridS1_.275:
..B12.139:                      # Preds ..B12.98
                                # Execution count [0.00e+00]: Infreq
        movq      %rax, 8(%rsp)                                 #132.5
                                # LOE
..B12.140:                      # Preds ..B12.139
                                # Execution count [0.00e+00]: Infreq
        movl      $.2.736_2_kmpc_loc_struct_pack.1108, %edi     #132.5
        call      __kmpc_global_thread_num                      #132.5
                                # LOE eax
..B12.170:                      # Preds ..B12.140
                                # Execution count [0.00e+00]: Infreq
        movq      32(%rsp), %rdi                                #132.5
        movl      $_ZNSs4_Rep20_S_empty_rep_storageE, %edx      #132.5
        movl      %eax, 164(%rsp)                               #132.5
        lea       -24(%rdi), %rbx                               #132.5
        cmpq      %rdx, %rbx                                    #132.5
        je        ..B12.127     # Prob 95%                      #132.5
                                # LOE rbx rdi
..B12.143:                      # Preds ..B12.170
                                # Execution count [0.00e+00]: Infreq
        addq      $-8, %rdi                                     #132.5
        xorl      %esi, %esi                                    #132.5
        decl      %esi                                          #132.5
..___tag_value__ZN3PDE12applyStencilEP4GridS1_.368:
#       __gnu_cxx::__exchange_and_add_dispatch(_Atomic_word *, int)
        call      _ZN33_INTERNAL_11_src_PDE_cpp_f2a32a069__gnu_cxx27__exchange_and_add_dispatchEPii #132.5
..___tag_value__ZN3PDE12applyStencilEP4GridS1_.369:
                                # LOE rbx eax
..B12.144:                      # Preds ..B12.143
                                # Execution count [0.00e+00]: Infreq
        testl     %eax, %eax                                    #132.5
        jg        ..B12.127     # Prob 94%                      #132.5
                                # LOE rbx
..B12.145:                      # Preds ..B12.144
                                # Execution count [0.00e+00]: Infreq
        movq      %rbx, %rdi                                    #132.5
        lea       (%rsp), %rsi                                  #132.5
#       std::basic_string<char, std::char_traits<char>, std::allocator<char>>::_Rep::_M_destroy(std::basic_string<char, std::char_traits<char>, std::allocator<char>>::_Rep *, const std::allocator<char> &)
        call      _ZNSs4_Rep10_M_destroyERKSaIcE                #132.5
        jmp       ..B12.127     # Prob 100%                     #132.5
                                # LOE
..___tag_value__ZN3PDE12applyStencilEP4GridS1_.274:
..B12.146:                      # Preds ..B12.97
                                # Execution count [0.00e+00]: Infreq
        movq      %rax, 8(%rsp)                                 #132.5
                                # LOE
..B12.147:                      # Preds ..B12.146
                                # Execution count [0.00e+00]: Infreq
        movl      $.2.736_2_kmpc_loc_struct_pack.1084, %edi     #132.5
        call      __kmpc_global_thread_num                      #132.5
                                # LOE eax
..B12.172:                      # Preds ..B12.147
                                # Execution count [0.00e+00]: Infreq
        movl      %eax, 164(%rsp)                               #132.5
        jmp       ..B12.127     # Prob 100%                     #132.5
                                # LOE
..B12.148:                      # Preds ..B12.96
                                # Execution count [8.00e-03]: Infreq
        movl      $__pthread_key_create, %eax                   #132.5
        testq     %rax, %rax                                    #132.5
        je        ..B12.151     # Prob 50%                      #132.5
                                # LOE rdx rbp rdi r15
..B12.149:                      # Preds ..B12.148
                                # Execution count [4.00e-03]: Infreq
        addq      $-8, %rdi                                     #132.5
        movl      $-1, %ecx                                     #132.5
        lock      
        xaddl     %ecx, (%rdi)                                  #132.5
        jmp       ..B12.152     # Prob 100%                     #132.5
                                # LOE rdx rbp r15 ecx
..B12.151:                      # Preds ..B12.148
                                # Execution count [4.00e-03]: Infreq
        movl      16(%rdx), %ecx                                #132.5
        lea       -1(%rcx), %eax                                #132.5
        movl      %eax, 16(%rdx)                                #132.5
                                # LOE rdx rbp r15 ecx
..B12.152:                      # Preds ..B12.149 ..B12.151
                                # Execution count [8.00e-03]: Infreq
        testl     %ecx, %ecx                                    #132.5
        jg        ..B12.97      # Prob 94%                      #132.5
                                # LOE rdx rbp r15
..B12.153:                      # Preds ..B12.152
                                # Execution count [4.08e-04]: Infreq
        movq      %rdx, %rdi                                    #132.5
        lea       1(%rsp), %rsi                                 #132.5
#       std::basic_string<char, std::char_traits<char>, std::allocator<char>>::_Rep::_M_destroy(std::basic_string<char, std::char_traits<char>, std::allocator<char>>::_Rep *, const std::allocator<char> &)
        call      _ZNSs4_Rep10_M_destroyERKSaIcE                #132.5
        jmp       ..B12.97      # Prob 100%                     #132.5
                                # LOE rbp r15
..___tag_value__ZN3PDE12applyStencilEP4GridS1_.272:
..B12.154:                      # Preds ..B12.64
                                # Execution count [0.00e+00]: Infreq
        movq      %rax, 8(%rsp)                                 #132.5
                                # LOE
..B12.155:                      # Preds ..B12.154
                                # Execution count [0.00e+00]: Infreq
        movl      $.2.736_2_kmpc_loc_struct_pack.1148, %edi     #132.5
        call      __kmpc_global_thread_num                      #132.5
                                # LOE eax
..B12.174:                      # Preds ..B12.155
                                # Execution count [0.00e+00]: Infreq
        movl      %eax, 164(%rsp)                               #132.5
        jmp       ..B12.127     # Prob 100%                     #132.5
                                # LOE
..B12.178:                      # Preds ..B12.84
                                # Execution count [1.72e-03]: Infreq
        movl      $_ZNSs4_Rep20_S_empty_rep_storageE, %ebp      #132.5
        jmp       ..B12.89      # Prob 100%                     #132.5
        .align    16,0x90
                                # LOE rbx rbp r12 r13 r14 r15
	.cfi_endproc
# mark_end;
	.type	_ZN3PDE12applyStencilEP4GridS1_,@function
	.size	_ZN3PDE12applyStencilEP4GridS1_,.-_ZN3PDE12applyStencilEP4GridS1_
	.section .gcc_except_table, "a"
	.align 4
_ZN3PDE12applyStencilEP4GridS1_$$LSDA:
	.byte	255
	.byte	0
	.uleb128	..___tag_value__ZN3PDE12applyStencilEP4GridS1_.374 - ..___tag_value__ZN3PDE12applyStencilEP4GridS1_.373
..___tag_value__ZN3PDE12applyStencilEP4GridS1_.373:
	.byte	1
	.uleb128	..___tag_value__ZN3PDE12applyStencilEP4GridS1_.372 - ..___tag_value__ZN3PDE12applyStencilEP4GridS1_.371
..___tag_value__ZN3PDE12applyStencilEP4GridS1_.371:
	.uleb128	..___tag_value__ZN3PDE12applyStencilEP4GridS1_.346 - ..___tag_value__ZN3PDE12applyStencilEP4GridS1_.276
	.uleb128	..___tag_value__ZN3PDE12applyStencilEP4GridS1_.347 - ..___tag_value__ZN3PDE12applyStencilEP4GridS1_.346
	.byte	0
	.byte	0
	.uleb128	..___tag_value__ZN3PDE12applyStencilEP4GridS1_.348 - ..___tag_value__ZN3PDE12applyStencilEP4GridS1_.276
	.uleb128	..___tag_value__ZN3PDE12applyStencilEP4GridS1_.349 - ..___tag_value__ZN3PDE12applyStencilEP4GridS1_.348
	.uleb128	..___tag_value__ZN3PDE12applyStencilEP4GridS1_.272 - ..___tag_value__ZN3PDE12applyStencilEP4GridS1_.276
	.byte	0
	.uleb128	..___tag_value__ZN3PDE12applyStencilEP4GridS1_.350 - ..___tag_value__ZN3PDE12applyStencilEP4GridS1_.276
	.uleb128	..___tag_value__ZN3PDE12applyStencilEP4GridS1_.351 - ..___tag_value__ZN3PDE12applyStencilEP4GridS1_.350
	.uleb128	..___tag_value__ZN3PDE12applyStencilEP4GridS1_.274 - ..___tag_value__ZN3PDE12applyStencilEP4GridS1_.276
	.byte	0
	.uleb128	..___tag_value__ZN3PDE12applyStencilEP4GridS1_.352 - ..___tag_value__ZN3PDE12applyStencilEP4GridS1_.276
	.uleb128	..___tag_value__ZN3PDE12applyStencilEP4GridS1_.353 - ..___tag_value__ZN3PDE12applyStencilEP4GridS1_.352
	.uleb128	..___tag_value__ZN3PDE12applyStencilEP4GridS1_.275 - ..___tag_value__ZN3PDE12applyStencilEP4GridS1_.276
	.byte	0
	.uleb128	..___tag_value__ZN3PDE12applyStencilEP4GridS1_.354 - ..___tag_value__ZN3PDE12applyStencilEP4GridS1_.276
	.uleb128	..___tag_value__ZN3PDE12applyStencilEP4GridS1_.359 - ..___tag_value__ZN3PDE12applyStencilEP4GridS1_.354
	.byte	0
	.byte	0
	.uleb128	..___tag_value__ZN3PDE12applyStencilEP4GridS1_.360 - ..___tag_value__ZN3PDE12applyStencilEP4GridS1_.276
	.uleb128	..___tag_value__ZN3PDE12applyStencilEP4GridS1_.361 - ..___tag_value__ZN3PDE12applyStencilEP4GridS1_.360
	.uleb128	..___tag_value__ZN3PDE12applyStencilEP4GridS1_.273 - ..___tag_value__ZN3PDE12applyStencilEP4GridS1_.276
	.byte	0
	.uleb128	..___tag_value__ZN3PDE12applyStencilEP4GridS1_.362 - ..___tag_value__ZN3PDE12applyStencilEP4GridS1_.276
	.uleb128	..___tag_value__ZN3PDE12applyStencilEP4GridS1_.363 - ..___tag_value__ZN3PDE12applyStencilEP4GridS1_.362
	.byte	0
	.byte	0
	.uleb128	..___tag_value__ZN3PDE12applyStencilEP4GridS1_.366 - ..___tag_value__ZN3PDE12applyStencilEP4GridS1_.276
	.uleb128	..___tag_value__ZN3PDE12applyStencilEP4GridS1_.367 - ..___tag_value__ZN3PDE12applyStencilEP4GridS1_.366
	.uleb128	..___tag_value__ZN3PDE12applyStencilEP4GridS1_.273 - ..___tag_value__ZN3PDE12applyStencilEP4GridS1_.276
	.byte	0
..___tag_value__ZN3PDE12applyStencilEP4GridS1_.372:
	.byte	127
	.byte	0
	.byte	1
	.byte	0
	.byte	0
	.byte	125
	.long	0x00000000,0x00000000
..___tag_value__ZN3PDE12applyStencilEP4GridS1_.374:
	.byte	0
	.data
	.space 1, 0x00 	# pad
	.align 4
timer_id.26492.0.359:
	.long	-1
	.align 4
.2.736_2_kmpc_loc_struct_pack.980:
	.long	0
	.long	2
	.long	0
	.long	0
	.quad	.2.736_2__kmpc_loc_pack.979
	.align 4
.2.736_2__kmpc_loc_pack.979:
	.byte	59
	.byte	117
	.byte	110
	.byte	107
	.byte	110
	.byte	111
	.byte	119
	.byte	110
	.byte	59
	.byte	97
	.byte	112
	.byte	112
	.byte	108
	.byte	121
	.byte	83
	.byte	116
	.byte	101
	.byte	110
	.byte	99
	.byte	105
	.byte	108
	.byte	59
	.byte	49
	.byte	52
	.byte	53
	.byte	59
	.byte	49
	.byte	52
	.byte	53
	.byte	59
	.byte	59
	.space 1, 0x00 	# pad
	.align 4
.2.736_2_kmpc_loc_struct_pack.1300:
	.long	0
	.long	2
	.long	0
	.long	0
	.quad	.2.736_2__kmpc_loc_pack.1299
	.align 4
.2.736_2__kmpc_loc_pack.1299:
	.byte	59
	.byte	117
	.byte	110
	.byte	107
	.byte	110
	.byte	111
	.byte	119
	.byte	110
	.byte	59
	.byte	97
	.byte	112
	.byte	112
	.byte	108
	.byte	121
	.byte	83
	.byte	116
	.byte	101
	.byte	110
	.byte	99
	.byte	105
	.byte	108
	.byte	59
	.byte	49
	.byte	52
	.byte	53
	.byte	59
	.byte	49
	.byte	53
	.byte	50
	.byte	59
	.byte	59
	.space 1, 0x00 	# pad
	.align 4
.2.736_2_kmpc_loc_struct_pack.1172:
	.long	0
	.long	2
	.long	0
	.long	0
	.quad	.2.736_2__kmpc_loc_pack.1171
	.align 4
.2.736_2__kmpc_loc_pack.1171:
	.byte	59
	.byte	117
	.byte	110
	.byte	107
	.byte	110
	.byte	111
	.byte	119
	.byte	110
	.byte	59
	.byte	97
	.byte	112
	.byte	112
	.byte	108
	.byte	121
	.byte	83
	.byte	116
	.byte	101
	.byte	110
	.byte	99
	.byte	105
	.byte	108
	.byte	59
	.byte	49
	.byte	51
	.byte	50
	.byte	59
	.byte	49
	.byte	51
	.byte	50
	.byte	59
	.byte	59
	.space 1, 0x00 	# pad
	.align 4
.2.736_2_kmpc_loc_struct_pack.1108:
	.long	0
	.long	2
	.long	0
	.long	0
	.quad	.2.736_2__kmpc_loc_pack.1107
	.align 4
.2.736_2__kmpc_loc_pack.1107:
	.byte	59
	.byte	117
	.byte	110
	.byte	107
	.byte	110
	.byte	111
	.byte	119
	.byte	110
	.byte	59
	.byte	97
	.byte	112
	.byte	112
	.byte	108
	.byte	121
	.byte	83
	.byte	116
	.byte	101
	.byte	110
	.byte	99
	.byte	105
	.byte	108
	.byte	59
	.byte	49
	.byte	51
	.byte	50
	.byte	59
	.byte	49
	.byte	51
	.byte	50
	.byte	59
	.byte	59
	.space 1, 0x00 	# pad
	.align 4
.2.736_2_kmpc_loc_struct_pack.1084:
	.long	0
	.long	2
	.long	0
	.long	0
	.quad	.2.736_2__kmpc_loc_pack.1083
	.align 4
.2.736_2__kmpc_loc_pack.1083:
	.byte	59
	.byte	117
	.byte	110
	.byte	107
	.byte	110
	.byte	111
	.byte	119
	.byte	110
	.byte	59
	.byte	97
	.byte	112
	.byte	112
	.byte	108
	.byte	121
	.byte	83
	.byte	116
	.byte	101
	.byte	110
	.byte	99
	.byte	105
	.byte	108
	.byte	59
	.byte	49
	.byte	51
	.byte	50
	.byte	59
	.byte	49
	.byte	51
	.byte	50
	.byte	59
	.byte	59
	.space 1, 0x00 	# pad
	.align 4
.2.736_2_kmpc_loc_struct_pack.1148:
	.long	0
	.long	2
	.long	0
	.long	0
	.quad	.2.736_2__kmpc_loc_pack.1147
	.align 4
.2.736_2__kmpc_loc_pack.1147:
	.byte	59
	.byte	117
	.byte	110
	.byte	107
	.byte	110
	.byte	111
	.byte	119
	.byte	110
	.byte	59
	.byte	97
	.byte	112
	.byte	112
	.byte	108
	.byte	121
	.byte	83
	.byte	116
	.byte	101
	.byte	110
	.byte	99
	.byte	105
	.byte	108
	.byte	59
	.byte	49
	.byte	51
	.byte	50
	.byte	59
	.byte	49
	.byte	51
	.byte	50
	.byte	59
	.byte	59
	.data
# -- End  _ZN3PDE12applyStencilEP4GridS1_, L__ZN3PDE12applyStencilEP4GridS1__145__par_loop0_2.83
	.text
# -- Begin  _ZN33_INTERNAL_11_src_PDE_cpp_f2a32a069__gnu_cxx27__exchange_and_add_dispatchEPii
	.text
# mark_begin;
       .align    16,0x90
# --- __gnu_cxx::__exchange_and_add_dispatch(_Atomic_word *, int)
_ZN33_INTERNAL_11_src_PDE_cpp_f2a32a069__gnu_cxx27__exchange_and_add_dispatchEPii:
# parameter 1: %rdi
# parameter 2: %esi
..B13.1:                        # Preds ..B13.0
                                # Execution count [1.00e+00]
	.cfi_startproc
	.cfi_personality 0x3,__gxx_personality_v0
..___tag_value__ZN33_INTERNAL_11_src_PDE_cpp_f2a32a069__gnu_cxx27__exchange_and_add_dispatchEPii.375:
..L376:
                                                        #79.3
        movl      $__pthread_key_create, %eax                   #81.9
        testq     %rax, %rax                                    #81.9
        je        ..B13.4       # Prob 50%                      #81.9
                                # LOE rbx rbp rdi r12 r13 r14 r15
..B13.2:                        # Preds ..B13.1
                                # Execution count [5.00e-01]
        movl      $-1, %ecx                                     #82.14
        lock      
        xaddl     %ecx, (%rdi)                                  #82.14
                                # LOE rbx rbp r12 r13 r14 r15 ecx
..B13.3:                        # Preds ..B13.2
                                # Execution count [5.00e-01]
        movl      %ecx, %eax                                    #82.14
        ret                                                     #82.14
                                # LOE
..B13.4:                        # Preds ..B13.1
                                # Execution count [5.00e-01]
        movl      (%rdi), %eax                                  #84.14
        lea       -1(%rax), %edx                                #84.14
        movl      %edx, (%rdi)                                  #84.14
        ret                                                     #84.14
        .align    16,0x90
                                # LOE
	.cfi_endproc
# mark_end;
	.type	_ZN33_INTERNAL_11_src_PDE_cpp_f2a32a069__gnu_cxx27__exchange_and_add_dispatchEPii,@function
	.size	_ZN33_INTERNAL_11_src_PDE_cpp_f2a32a069__gnu_cxx27__exchange_and_add_dispatchEPii,.-_ZN33_INTERNAL_11_src_PDE_cpp_f2a32a069__gnu_cxx27__exchange_and_add_dispatchEPii
	.data
# -- End  _ZN33_INTERNAL_11_src_PDE_cpp_f2a32a069__gnu_cxx27__exchange_and_add_dispatchEPii
	.section .text._ZNSt3mapISsiSt4lessISsESaISt4pairIKSsiEEEixEOSs, "xaG",@progbits,_ZNSt3mapISsiSt4lessISsESaISt4pairIKSsiEEEixEOSs,comdat
..TXTST4:
# -- Begin  _ZNSt3mapISsiSt4lessISsESaISt4pairIKSsiEEEixEOSs
	.section .text._ZNSt3mapISsiSt4lessISsESaISt4pairIKSsiEEEixEOSs, "xaG",@progbits,_ZNSt3mapISsiSt4lessISsESaISt4pairIKSsiEEEixEOSs,comdat
# mark_begin;
       .align    16,0x90
	.weak _ZNSt3mapISsiSt4lessISsESaISt4pairIKSsiEEEixEOSs
# --- std::map<std::string, int, std::less<std::string>, std::allocator<std::pair<const std::string, int>>>::operator[](std::map<std::string, int, std::less<std::string>, std::allocator<std::pair<const std::string, int>>> *, std::map<std::string, int, std::less<std::string>, std::allocator<std::pair<const std::string, int>>>::key_type &&)
_ZNSt3mapISsiSt4lessISsESaISt4pairIKSsiEEEixEOSs:
# parameter 1: %rdi
# parameter 2: %rsi
..B14.1:                        # Preds ..B14.0
                                # Execution count [1.00e+00]
	.cfi_startproc
	.cfi_personality 0x3,__gxx_personality_v0
	.cfi_lsda 0xb, _ZNSt3mapISsiSt4lessISsESaISt4pairIKSsiEEEixEOSs$$LSDA
..___tag_value__ZNSt3mapISsiSt4lessISsESaISt4pairIKSsiEEEixEOSs.378:
..L379:
                                                        #477.7
        pushq     %r12                                          #477.7
	.cfi_def_cfa_offset 16
	.cfi_offset 12, -16
        pushq     %r13                                          #477.7
	.cfi_def_cfa_offset 24
	.cfi_offset 13, -24
        pushq     %r14                                          #477.7
	.cfi_def_cfa_offset 32
	.cfi_offset 14, -32
        pushq     %r15                                          #477.7
	.cfi_def_cfa_offset 40
	.cfi_offset 15, -40
        pushq     %rbx                                          #477.7
	.cfi_def_cfa_offset 48
	.cfi_offset 3, -48
        pushq     %rbp                                          #477.7
	.cfi_def_cfa_offset 56
	.cfi_offset 6, -56
        subq      $40, %rsp                                     #477.7
	.cfi_def_cfa_offset 96
        movq      %rdi, %r12                                    #477.7
        movq      %rsi, %r15                                    #477.7
        movq      16(%r12), %r13                                #481.29
        lea       8(%r12), %rbx                                 #481.29
        testq     %r13, %r13                                    #481.29
        je        ..B14.10      # Prob 1%                       #481.29
                                # LOE rbx r12 r13 r15
..B14.2:                        # Preds ..B14.1
                                # Execution count [9.85e-01]
        movq      (%r15), %rbp                                  #481.29
        movq      %r15, (%rsp)                                  #481.29[spill]
        movq      -24(%rbp), %r14                               #481.29
                                # LOE rbx rbp r12 r13 r14
..B14.3:                        # Preds ..B14.8 ..B14.2
                                # Execution count [5.47e+00]
        movq      32(%r13), %rdi                                #481.29
        movq      %r14, %rdx                                    #481.29
        movq      %rbp, %rsi                                    #481.29
        movq      -24(%rdi), %r15                               #481.29
        cmpq      %r15, %r14                                    #481.29
        cmovae    %r15, %rdx                                    #481.29
        call      _intel_fast_memcmp                            #481.29
                                # LOE rbx rbp r12 r13 r14 r15 eax
..B14.157:                      # Preds ..B14.3
                                # Execution count [5.47e+00]
        testl     %eax, %eax                                    #481.29
        jne       ..B14.8       # Prob 78%                      #481.29
                                # LOE rbx rbp r12 r13 r14 r15 eax
..B14.4:                        # Preds ..B14.157
                                # Execution count [1.20e+00]
        subq      %r14, %r15                                    #481.29
        cmpq      $2147483647, %r15                             #481.29
        jg        ..B14.6       # Prob 28%                      #481.29
                                # LOE rbx rbp r12 r13 r14 r15
..B14.5:                        # Preds ..B14.4
                                # Execution count [8.67e-01]
        movl      $-2147483648, %ecx                            #481.29
        cmpq      $-2147483648, %r15                            #481.29
        movl      %r15d, %eax                                   #481.29
        cmovl     %ecx, %eax                                    #481.29
        jmp       ..B14.8       # Prob 100%                     #481.29
                                # LOE rbx rbp r12 r13 r14 eax
..B14.6:                        # Preds ..B14.4
                                # Execution count [3.37e-01]
        movl      $2147483647, %eax                             #481.29
                                # LOE rbx rbp r12 r13 r14 eax
..B14.8:                        # Preds ..B14.5 ..B14.6 ..B14.157
                                # Execution count [5.47e+00]
        movq      %r13, %r8                                     #481.29
        testl     %eax, %eax                                    #481.29
        movq      24(%r13), %rcx                                #481.29
        cmovge    %r13, %rbx                                    #481.29
        movq      %rcx, %r13                                    #481.29
        cmovge    16(%r8), %r13                                 #481.29
        testq     %r13, %r13                                    #481.29
        jne       ..B14.3       # Prob 82%                      #481.29
                                # LOE rbx rbp r12 r13 r14
..B14.9:                        # Preds ..B14.8
                                # Execution count [9.85e-01]
        movq      (%rsp), %r15                                  #[spill]
                                # LOE rbx r12 r15
..B14.10:                       # Preds ..B14.9 ..B14.1
                                # Execution count [1.00e+00]
        lea       8(%r12), %r13                                 #483.13
        movq      %r13, %rbp                                    #483.13
        cmpq      %r13, %rbx                                    #483.10
        je        ..B14.17      # Prob 78%                      #483.10
                                # LOE rbx rbp r12 r13 r15
..B14.11:                       # Preds ..B14.10
                                # Execution count [2.20e-01]
        movq      (%r15), %rdi                                  #483.32
        movq      32(%rbx), %rsi                                #483.32
        movq      -24(%rdi), %r14                               #483.32
        movq      %r14, %rdx                                    #483.32
        movq      -24(%rsi), %rbp                               #483.32
        cmpq      %r14, %rbp                                    #483.32
        cmovb     %rbp, %rdx                                    #483.32
        call      _intel_fast_memcmp                            #483.32
                                # LOE rbx rbp r12 r13 r14 r15 eax
..B14.158:                      # Preds ..B14.11
                                # Execution count [2.20e-01]
        testl     %eax, %eax                                    #483.32
        jne       ..B14.16      # Prob 78%                      #483.32
                                # LOE rbx rbp r12 r13 r14 r15 eax
..B14.12:                       # Preds ..B14.158
                                # Execution count [4.84e-02]
        subq      %rbp, %r14                                    #483.32
        cmpq      $2147483647, %r14                             #483.32
        jg        ..B14.14      # Prob 28%                      #483.32
                                # LOE rbx r12 r13 r14 r15
..B14.13:                       # Preds ..B14.12
                                # Execution count [3.48e-02]
        movl      $-2147483648, %esi                            #483.32
        cmpq      $-2147483648, %r14                            #483.32
        movl      %r14d, %eax                                   #483.32
        cmovl     %esi, %eax                                    #483.32
        jmp       ..B14.16      # Prob 100%                     #483.32
                                # LOE rbx r12 r13 r15 eax
..B14.14:                       # Preds ..B14.12
                                # Execution count [1.36e-02]
        movl      $2147483647, %eax                             #483.32
                                # LOE rbx r12 r13 r15 eax
..B14.16:                       # Preds ..B14.13 ..B14.14 ..B14.158
                                # Execution count [2.20e-01]
        testl     %eax, %eax                                    #483.32
        jl        ..B14.178     # Prob 22%                      #483.32
        jmp       ..B14.81      # Prob 100%                     #483.32
                                # LOE rbx r12 r13 r15
..B14.17:                       # Preds ..B14.178 ..B14.10
                                # Execution count [8.28e-01]
        movl      $48, %edi                                     #486.6
..___tag_value__ZNSt3mapISsiSt4lessISsESaISt4pairIKSsiEEEixEOSs.393:
#       operator new(std::size_t)
        call      _Znwm                                         #486.6
..___tag_value__ZNSt3mapISsiSt4lessISsESaISt4pairIKSsiEEEixEOSs.394:
                                # LOE rax rbx rbp r12 r13 r15
..B14.159:                      # Preds ..B14.17
                                # Execution count [8.28e-01]
        movq      %rax, %r14                                    #486.6
                                # LOE rbx rbp r12 r13 r14 r15
..B14.18:                       # Preds ..B14.159
                                # Execution count [8.28e-01]
        testq     %r14, %r14                                    #486.6
        je        ..B14.21      # Prob 15%                      #486.6
                                # LOE rbx rbp r12 r13 r14 r15
..B14.19:                       # Preds ..B14.18
                                # Execution count [6.97e-01]
        vpxor     %xmm0, %xmm0, %xmm0                           #486.6
        vmovups   %xmm0, (%r14)                                 #486.6
        vmovups   %xmm0, 16(%r14)                               #486.6
                                # LOE rbx rbp r12 r13 r14 r15
..B14.20:                       # Preds ..B14.19
                                # Execution count [6.97e-01]
        movq      (%r15), %r8                                   #486.6
        movq      %r8, 32(%r14)                                 #486.6
        movq      $_ZNSs4_Rep20_S_empty_rep_storageE+24, (%r15) #486.6
        movl      $0, 40(%r14)                                  #486.6
                                # LOE rbx rbp r12 r13 r14
..B14.21:                       # Preds ..B14.18 ..B14.20
                                # Execution count [8.28e-01]
        cmpq      %rbp, %rbx                                    #486.6
        je        ..B14.125     # Prob 12%                      #486.6
                                # LOE rbx rbp r12 r13 r14
..B14.22:                       # Preds ..B14.21
                                # Execution count [7.29e-01]
        movq      32(%r14), %rdi                                #486.6
        movq      32(%rbx), %rsi                                #486.6
        movq      %rdi, 32(%rsp)                                #486.6[spill]
        movq      -24(%rdi), %r15                               #486.6
        movq      %r15, %rdx                                    #486.6
        movq      -24(%rsi), %r8                                #486.6
        cmpq      %r15, %r8                                     #486.6
        movq      %rsi, (%rsp)                                  #486.6[spill]
        cmovb     %r8, %rdx                                     #486.6
        movq      %r8, 8(%rsp)                                  #486.6[spill]
        call      _intel_fast_memcmp                            #486.6
                                # LOE rbx rbp r12 r13 r14 r15 eax
..B14.160:                      # Preds ..B14.22
                                # Execution count [7.29e-01]
        testl     %eax, %eax                                    #486.6
        jne       ..B14.27      # Prob 78%                      #486.6
                                # LOE rbx rbp r12 r13 r14 r15 eax
..B14.23:                       # Preds ..B14.160
                                # Execution count [1.60e-01]
        movq      %r15, %rax                                    #486.6
        subq      8(%rsp), %rax                                 #486.6[spill]
        cmpq      $2147483647, %rax                             #486.6
        jg        ..B14.25      # Prob 28%                      #486.6
                                # LOE rax rbx rbp r12 r13 r14 r15
..B14.24:                       # Preds ..B14.23
                                # Execution count [1.15e-01]
        movl      $-2147483648, %r8d                            #486.6
        cmpq      $-2147483648, %rax                            #486.6
        cmovl     %r8d, %eax                                    #486.6
        jmp       ..B14.27      # Prob 100%                     #486.6
                                # LOE rbx rbp r12 r13 r14 r15 eax
..B14.25:                       # Preds ..B14.23
                                # Execution count [4.49e-02]
        movl      $2147483647, %eax                             #486.6
                                # LOE rbx rbp r12 r13 r14 r15 eax
..B14.27:                       # Preds ..B14.24 ..B14.25 ..B14.160
                                # Execution count [7.29e-01]
        testl     %eax, %eax                                    #486.6
        jge       ..B14.47      # Prob 50%                      #486.6
                                # LOE rbx rbp r12 r13 r14 r15
..B14.28:                       # Preds ..B14.27
                                # Execution count [3.64e-01]
        movq      24(%r12), %r8                                 #486.6
        movq      %r8, 24(%rsp)                                 #486.6[spill]
        cmpq      %r8, %rbx                                     #486.6
        je        ..B14.103     # Prob 5%                       #486.6
                                # LOE rbx rbp r8 r12 r13 r14 r15
..B14.29:                       # Preds ..B14.28
                                # Execution count [3.46e-01]
        movq      %rbx, %rdi                                    #486.6
#       std::_Rb_tree_decrement(std::_Rb_tree_node_base *)
        call      _ZSt18_Rb_tree_decrementPSt18_Rb_tree_node_base #486.6
                                # LOE rax rbx rbp r12 r13 r14 r15
..B14.162:                      # Preds ..B14.29
                                # Execution count [3.46e-01]
        movq      %r15, %rdx                                    #486.6
        movq      32(%rsp), %rsi                                #486.6[spill]
        movq      %rax, (%rsp)                                  #486.6[spill]
        movq      32(%rax), %rdi                                #486.6
        movq      -24(%rdi), %r8                                #486.6
        cmpq      %r8, %r15                                     #486.6
        movq      %r8, 8(%rsp)                                  #486.6[spill]
        cmovae    %r8, %rdx                                     #486.6
        call      _intel_fast_memcmp                            #486.6
                                # LOE rbx rbp r12 r13 r14 r15 eax
..B14.161:                      # Preds ..B14.162
                                # Execution count [3.46e-01]
        testl     %eax, %eax                                    #486.6
        jne       ..B14.34      # Prob 78%                      #486.6
                                # LOE rbx rbp r12 r13 r14 r15 eax
..B14.30:                       # Preds ..B14.161
                                # Execution count [7.62e-02]
        movq      8(%rsp), %r8                                  #486.6[spill]
        subq      %r15, %r8                                     #486.6
        movq      %r8, 8(%rsp)                                  #486.6[spill]
        cmpq      $2147483647, %r8                              #486.6
        jg        ..B14.32      # Prob 28%                      #486.6
                                # LOE rbx rbp r8 r12 r13 r14 r15
..B14.31:                       # Preds ..B14.30
                                # Execution count [5.48e-02]
        movq      %r8, %rax                                     #486.6
        movl      $-2147483648, %r8d                            #486.6
        cmpq      $-2147483648, %rax                            #486.6
        cmovl     %r8d, %eax                                    #486.6
        jmp       ..B14.34      # Prob 100%                     #486.6
                                # LOE rbx rbp r12 r13 r14 r15 eax
..B14.32:                       # Preds ..B14.30
                                # Execution count [2.13e-02]
        movl      $2147483647, %eax                             #486.6
                                # LOE rbx rbp r12 r13 r14 r15 eax
..B14.34:                       # Preds ..B14.31 ..B14.32 ..B14.161
                                # Execution count [3.46e-01]
        testl     %eax, %eax                                    #486.6
        jge       ..B14.37      # Prob 28%                      #486.6
                                # LOE rbx rbp r12 r13 r14 r15
..B14.35:                       # Preds ..B14.34
                                # Execution count [2.49e-01]
        movq      (%rsp), %r8                                   #486.6[spill]
        cmpq      $0, 24(%r8)                                   #486.6
        je        ..B14.82      # Prob 12%                      #486.6
                                # LOE rbx rbp r8 r12 r13 r14
..B14.36:                       # Preds ..B14.35
                                # Execution count [2.19e-01]
        movq      %rbx, %r8                                     #486.6
        jmp       ..B14.62      # Prob 100%                     #486.6
                                # LOE rbx rbp r8 r12 r13 r14
..B14.37:                       # Preds ..B14.34
                                # Execution count [9.69e-02]
        movq      16(%r12), %r8                                 #486.6
        movq      %rbp, %rbx                                    #486.6
        testq     %r8, %r8                                      #486.6
        je        ..B14.92      # Prob 1%                       #486.6
                                # LOE rbx rbp r8 r12 r13 r14 r15
..B14.38:                       # Preds ..B14.37
                                # Execution count [9.55e-02]
        movq      %r14, (%rsp)                                  #[spill]
        movq      %r8, %rbx                                     #
        movq      %r13, 8(%rsp)                                 #[spill]
        movq      %r12, 16(%rsp)                                #[spill]
        movq      32(%rsp), %r14                                #[spill]
                                # LOE rbx rbp r14 r15
..B14.39:                       # Preds ..B14.45 ..B14.46 ..B14.38
                                # Execution count [5.30e-01]
        movq      32(%rbx), %rsi                                #486.6
        movq      %r15, %rdx                                    #486.6
        movq      %r14, %rdi                                    #486.6
        movq      %rbx, %r12                                    #486.6
        movq      -24(%rsi), %r13                               #486.6
        cmpq      %r15, %r13                                    #486.6
        cmovb     %r13, %rdx                                    #486.6
        call      _intel_fast_memcmp                            #486.6
                                # LOE rbx rbp r12 r13 r14 r15 eax
..B14.163:                      # Preds ..B14.39
                                # Execution count [5.30e-01]
        movl      %eax, %edx                                    #486.6
        testl     %edx, %edx                                    #486.6
        jne       ..B14.44      # Prob 78%                      #486.6
                                # LOE rbx rbp r12 r13 r14 r15 edx
..B14.40:                       # Preds ..B14.163
                                # Execution count [1.17e-01]
        negq      %r13                                          #486.6
        addq      %r15, %r13                                    #486.6
        cmpq      $2147483647, %r13                             #486.6
        jg        ..B14.42      # Prob 28%                      #486.6
                                # LOE rbx rbp r12 r13 r14 r15
..B14.41:                       # Preds ..B14.40
                                # Execution count [8.40e-02]
        movl      $-2147483648, %eax                            #486.6
        cmpq      $-2147483648, %r13                            #486.6
        movl      %r13d, %edx                                   #486.6
        cmovl     %eax, %edx                                    #486.6
        jmp       ..B14.44      # Prob 100%                     #486.6
                                # LOE rbx rbp r12 r14 r15 edx
..B14.42:                       # Preds ..B14.40
                                # Execution count [3.27e-02]
        movl      $2147483647, %edx                             #486.6
                                # LOE rbx rbp r12 r14 r15 edx
..B14.44:                       # Preds ..B14.41 ..B14.42 ..B14.163
                                # Execution count [5.30e-01]
        testl     %edx, %edx                                    #486.6
        jge       ..B14.46      # Prob 50%                      #486.6
                                # LOE rbx rbp r12 r14 r15
..B14.45:                       # Preds ..B14.44
                                # Execution count [2.65e-01]
        movq      16(%rbx), %rbx                                #486.6
        testq     %rbx, %rbx                                    #486.6
        jne       ..B14.39      # Prob 82%                      #486.6
        jmp       ..B14.91      # Prob 100%                     #486.6
                                # LOE rbx rbp r12 r14 r15
..B14.46:                       # Preds ..B14.44
                                # Execution count [2.65e-01]
        movq      24(%rbx), %rbx                                #486.6
        testq     %rbx, %rbx                                    #486.6
        jne       ..B14.39      # Prob 82%                      #486.6
        jmp       ..B14.102     # Prob 100%                     #486.6
                                # LOE rbx rbp r12 r14 r15
..B14.47:                       # Preds ..B14.27
                                # Execution count [3.64e-01]
        movq      8(%rsp), %rdx                                 #486.6[spill]
        cmpq      %rdx, %r15                                    #486.6
        movq      (%rsp), %rdi                                  #486.6[spill]
        cmovb     %r15, %rdx                                    #486.6
        movq      32(%rsp), %rsi                                #486.6[spill]
        call      _intel_fast_memcmp                            #486.6
                                # LOE rbx rbp r12 r13 r14 r15 eax
..B14.164:                      # Preds ..B14.47
                                # Execution count [3.64e-01]
        testl     %eax, %eax                                    #486.6
        jne       ..B14.52      # Prob 78%                      #486.6
                                # LOE rbx rbp r12 r13 r14 r15 eax
..B14.48:                       # Preds ..B14.164
                                # Execution count [8.02e-02]
        movq      8(%rsp), %r8                                  #486.6[spill]
        subq      %r15, %r8                                     #486.6
        movq      %r8, 8(%rsp)                                  #486.6[spill]
        cmpq      $2147483647, %r8                              #486.6
        jg        ..B14.50      # Prob 28%                      #486.6
                                # LOE rbx rbp r8 r12 r13 r14 r15
..B14.49:                       # Preds ..B14.48
                                # Execution count [5.77e-02]
        movq      %r8, %rax                                     #486.6
        movl      $-2147483648, %r8d                            #486.6
        cmpq      $-2147483648, %rax                            #486.6
        cmovl     %r8d, %eax                                    #486.6
        jmp       ..B14.52      # Prob 100%                     #486.6
                                # LOE rbx rbp r12 r13 r14 r15 eax
..B14.50:                       # Preds ..B14.48
                                # Execution count [2.25e-02]
        movl      $2147483647, %eax                             #486.6
                                # LOE rbx rbp r12 r13 r14 r15 eax
..B14.52:                       # Preds ..B14.49 ..B14.50 ..B14.164
                                # Execution count [3.64e-01]
        testl     %eax, %eax                                    #486.6
        jge       ..B14.77      # Prob 28%                      #486.6
                                # LOE rbx rbp r12 r13 r14 r15
..B14.53:                       # Preds ..B14.52
                                # Execution count [2.62e-01]
        movq      32(%r12), %r8                                 #486.6
        cmpq      %r8, %rbx                                     #486.6
        je        ..B14.82      # Prob 5%                       #486.6
                                # LOE rbx rbp r8 r12 r13 r14 r15
..B14.54:                       # Preds ..B14.53
                                # Execution count [2.49e-01]
        movq      %rbx, %rdi                                    #486.6
#       std::_Rb_tree_increment(std::_Rb_tree_node_base *)
        call      _ZSt18_Rb_tree_incrementPSt18_Rb_tree_node_base #486.6
                                # LOE rax rbx rbp r12 r13 r14 r15
..B14.166:                      # Preds ..B14.54
                                # Execution count [2.49e-01]
        movq      %rax, %r8                                     #486.6
        movq      %r15, %rdx                                    #486.6
        movq      32(%rsp), %rdi                                #486.6[spill]
        movq      %r8, 24(%rsp)                                 #486.6[spill]
        movq      32(%r8), %rsi                                 #486.6
        movq      -24(%rsi), %r9                                #486.6
        cmpq      %r15, %r9                                     #486.6
        movq      %r9, (%rsp)                                   #486.6[spill]
        cmovb     %r9, %rdx                                     #486.6
        call      _intel_fast_memcmp                            #486.6
                                # LOE rbx rbp r12 r13 r14 r15 eax
..B14.165:                      # Preds ..B14.166
                                # Execution count [2.49e-01]
        movq      24(%rsp), %r8                                 #[spill]
        testl     %eax, %eax                                    #486.6
        jne       ..B14.59      # Prob 78%                      #486.6
                                # LOE rbx rbp r8 r12 r13 r14 r15 eax
..B14.55:                       # Preds ..B14.165
                                # Execution count [5.48e-02]
        movq      (%rsp), %r9                                   #486.6[spill]
        negq      %r9                                           #486.6
        addq      %r15, %r9                                     #486.6
        movq      %r9, (%rsp)                                   #486.6[spill]
        cmpq      $2147483647, %r9                              #486.6
        jg        ..B14.57      # Prob 28%                      #486.6
                                # LOE rbx rbp r8 r9 r12 r13 r14 r15
..B14.56:                       # Preds ..B14.55
                                # Execution count [3.95e-02]
        movq      %r9, %rax                                     #486.6
        movl      $-2147483648, %r9d                            #486.6
        cmpq      $-2147483648, %rax                            #486.6
        cmovl     %r9d, %eax                                    #486.6
        jmp       ..B14.59      # Prob 100%                     #486.6
                                # LOE rbx rbp r8 r12 r13 r14 r15 eax
..B14.57:                       # Preds ..B14.55
                                # Execution count [1.54e-02]
        movl      $2147483647, %eax                             #486.6
                                # LOE rbx rbp r8 r12 r13 r14 r15 eax
..B14.59:                       # Preds ..B14.56 ..B14.57 ..B14.165
                                # Execution count [2.49e-01]
        testl     %eax, %eax                                    #486.6
        jge       ..B14.67      # Prob 28%                      #486.6
                                # LOE rbx rbp r8 r12 r13 r14 r15
..B14.60:                       # Preds ..B14.59
                                # Execution count [1.79e-01]
        cmpq      $0, 24(%rbx)                                  #486.6
        je        ..B14.83      # Prob 12%                      #486.6
                                # LOE rbx rbp r8 r12 r13 r14
..B14.61:                       # Preds ..B14.60
                                # Execution count [1.58e-01]
        movq      %r8, %rbx                                     #486.6
                                # LOE rbx rbp r8 r12 r13 r14
..B14.62:                       # Preds ..B14.152 ..B14.149 ..B14.114 ..B14.107 ..B14.99
                                #       ..B14.92 ..B14.103 ..B14.36 ..B14.61
                                # Execution count [6.41e-01]
        testq     %rbx, %rbx                                    #486.6
        je        ..B14.104     # Prob 12%                      #486.6
                                # LOE rbx rbp r8 r12 r13 r14
..B14.63:                       # Preds ..B14.62
                                # Execution count [7.10e-01]
        testq     %r8, %r8                                      #486.6
        je        ..B14.84      # Prob 3%                       #486.6
                                # LOE rbx rbp r12 r13 r14
..B14.64:                       # Preds ..B14.84 ..B14.63
                                # Execution count [7.11e-01]
        movl      $1, %edi                                      #486.6
                                # LOE rbx r12 r13 r14 edi
..B14.65:                       # Preds ..B14.64 ..B14.90
                                # Execution count [7.29e-01]
        movq      %r14, %rsi                                    #486.6
        movq      %rbx, %rdx                                    #486.6
        movq      %r13, %rcx                                    #486.6
#       std::_Rb_tree_insert_and_rebalance(bool, std::_Rb_tree_node_base *, std::_Rb_tree_node_base *, std::_Rb_tree_node_base &)
        call      _ZSt29_Rb_tree_insert_and_rebalancebPSt18_Rb_tree_node_baseS0_RS_ #486.6
                                # LOE r12 r14
..B14.66:                       # Preds ..B14.65
                                # Execution count [7.29e-01]
        incq      40(%r12)                                      #486.6
        movq      %r14, %rbx                                    #486.6
        jmp       ..B14.81      # Prob 100%                     #486.6
                                # LOE rbx
..B14.67:                       # Preds ..B14.59
                                # Execution count [6.98e-02]
        movq      16(%r12), %r8                                 #486.6
        movq      %rbp, %rbx                                    #486.6
        testq     %r8, %r8                                      #486.6
        je        ..B14.107     # Prob 1%                       #486.6
                                # LOE rbx rbp r8 r12 r13 r14 r15
..B14.68:                       # Preds ..B14.67
                                # Execution count [6.87e-02]
        movq      %r12, 16(%rsp)                                #[spill]
        movq      %r8, %rbx                                     #
        movq      %r14, (%rsp)                                  #[spill]
        movq      %r13, 8(%rsp)                                 #[spill]
        movq      %rbp, %r13                                    #
        movq      32(%rsp), %r12                                #[spill]
                                # LOE rbx r12 r13 r15
..B14.69:                       # Preds ..B14.75 ..B14.76 ..B14.68
                                # Execution count [3.82e-01]
        movq      32(%rbx), %rsi                                #486.6
        movq      %r15, %rdx                                    #486.6
        movq      %r12, %rdi                                    #486.6
        movq      %rbx, %rbp                                    #486.6
        movq      -24(%rsi), %r14                               #486.6
        cmpq      %r15, %r14                                    #486.6
        cmovb     %r14, %rdx                                    #486.6
        call      _intel_fast_memcmp                            #486.6
                                # LOE rbx rbp r12 r13 r14 r15 eax
..B14.167:                      # Preds ..B14.69
                                # Execution count [3.82e-01]
        movl      %eax, %edx                                    #486.6
        testl     %edx, %edx                                    #486.6
        jne       ..B14.74      # Prob 78%                      #486.6
                                # LOE rbx rbp r12 r13 r14 r15 edx
..B14.70:                       # Preds ..B14.167
                                # Execution count [8.40e-02]
        negq      %r14                                          #486.6
        addq      %r15, %r14                                    #486.6
        cmpq      $2147483647, %r14                             #486.6
        jg        ..B14.72      # Prob 28%                      #486.6
                                # LOE rbx rbp r12 r13 r14 r15
..B14.71:                       # Preds ..B14.70
                                # Execution count [6.05e-02]
        movl      $-2147483648, %eax                            #486.6
        cmpq      $-2147483648, %r14                            #486.6
        movl      %r14d, %edx                                   #486.6
        cmovl     %eax, %edx                                    #486.6
        jmp       ..B14.74      # Prob 100%                     #486.6
                                # LOE rbx rbp r12 r13 r15 edx
..B14.72:                       # Preds ..B14.70
                                # Execution count [2.35e-02]
        movl      $2147483647, %edx                             #486.6
                                # LOE rbx rbp r12 r13 r15 edx
..B14.74:                       # Preds ..B14.71 ..B14.72 ..B14.167
                                # Execution count [3.82e-01]
        testl     %edx, %edx                                    #486.6
        jge       ..B14.76      # Prob 50%                      #486.6
                                # LOE rbx rbp r12 r13 r15
..B14.75:                       # Preds ..B14.74
                                # Execution count [1.91e-01]
        movq      16(%rbx), %rbx                                #486.6
        testq     %rbx, %rbx                                    #486.6
        jne       ..B14.69      # Prob 82%                      #486.6
        jmp       ..B14.106     # Prob 100%                     #486.6
                                # LOE rbx rbp r12 r13 r15
..B14.76:                       # Preds ..B14.74
                                # Execution count [1.91e-01]
        movq      24(%rbx), %rbx                                #486.6
        testq     %rbx, %rbx                                    #486.6
        jne       ..B14.69      # Prob 82%                      #486.6
        jmp       ..B14.117     # Prob 100%                     #486.6
                                # LOE rbx rbp r12 r13 r15
..B14.77:                       # Preds ..B14.52
                                # Execution count [1.02e-01]
        movq      %rbx, %r8                                     #486.6
                                # LOE r8 r14
..B14.78:                       # Preds ..B14.83 ..B14.77 ..B14.104
                                # Execution count [9.94e-02]
        movq      32(%rsp), %rax                                #486.6[spill]
        movl      $_ZNSs4_Rep20_S_empty_rep_storageE, %edx      #486.6
        lea       -24(%rax), %rbp                               #486.6
        cmpq      %rdx, %rbp                                    #486.6
        jne       ..B14.119     # Prob 5%                       #486.6
                                # LOE rbp r8 r14
..B14.79:                       # Preds ..B14.179 ..B14.123 ..B14.78
                                # Execution count [9.94e-02]
        movq      %r14, %rdi                                    #486.6
        movq      %r8, 24(%rsp)                                 #486.6[spill]
#       operator delete(void *)
        call      _ZdlPv                                        #486.6
                                # LOE
..B14.80:                       # Preds ..B14.79
                                # Execution count [9.94e-02]
        movq      24(%rsp), %r8                                 #[spill]
        movq      %r8, %rbx                                     #486.6
                                # LOE rbx
..B14.81:                       # Preds ..B14.16 ..B14.66 ..B14.80
                                # Execution count [1.00e+00]
        addq      $40, %rbx                                     #487.10
        movq      %rbx, %rax                                    #487.10
        addq      $40, %rsp                                     #487.10
	.cfi_def_cfa_offset 56
	.cfi_restore 6
        popq      %rbp                                          #487.10
	.cfi_def_cfa_offset 48
	.cfi_restore 3
        popq      %rbx                                          #487.10
	.cfi_def_cfa_offset 40
	.cfi_restore 15
        popq      %r15                                          #487.10
	.cfi_def_cfa_offset 32
	.cfi_restore 14
        popq      %r14                                          #487.10
	.cfi_def_cfa_offset 24
	.cfi_restore 13
        popq      %r13                                          #487.10
	.cfi_def_cfa_offset 16
	.cfi_restore 12
        popq      %r12                                          #487.10
	.cfi_def_cfa_offset 8
        ret                                                     #487.10
	.cfi_def_cfa_offset 96
	.cfi_offset 3, -48
	.cfi_offset 6, -56
	.cfi_offset 12, -16
	.cfi_offset 13, -24
	.cfi_offset 14, -32
	.cfi_offset 15, -40
                                # LOE
..B14.82:                       # Preds ..B14.53 ..B14.35
                                # Execution count [2.99e-02]: Infreq
        movq      %r8, %rbx                                     #486.6
                                # LOE rbx rbp r12 r13 r14
..B14.83:                       # Preds ..B14.131 ..B14.60 ..B14.82
                                # Execution count [2.15e-02]: Infreq
        xorl      %r8d, %r8d                                    #486.6
        testq     %rbx, %rbx                                    #486.6
        je        ..B14.78      # Prob 12%                      #486.6
                                # LOE rbx rbp r8 r12 r13 r14
..B14.84:                       # Preds ..B14.83 ..B14.63
                                # Execution count [2.70e-02]: Infreq
        cmpq      %rbp, %rbx                                    #486.6
        je        ..B14.64      # Prob 32%                      #486.6
                                # LOE rbx r12 r13 r14
..B14.85:                       # Preds ..B14.84
                                # Execution count [1.82e-02]: Infreq
        movq      32(%r14), %rdi                                #486.6
        movq      32(%rbx), %rsi                                #486.6
        movq      -24(%rdi), %r15                               #486.6
        movq      %r15, %rdx                                    #486.6
        movq      -24(%rsi), %rbp                               #486.6
        cmpq      %r15, %rbp                                    #486.6
        cmovb     %rbp, %rdx                                    #486.6
        call      _intel_fast_memcmp                            #486.6
                                # LOE rbx rbp r12 r13 r14 r15 eax
..B14.168:                      # Preds ..B14.85
                                # Execution count [1.82e-02]: Infreq
        movl      %eax, %edi                                    #486.6
        testl     %edi, %edi                                    #486.6
        jne       ..B14.90      # Prob 78%                      #486.6
                                # LOE rbx rbp r12 r13 r14 r15 edi
..B14.86:                       # Preds ..B14.168
                                # Execution count [4.00e-03]: Infreq
        subq      %rbp, %r15                                    #486.6
        cmpq      $2147483647, %r15                             #486.6
        jg        ..B14.88      # Prob 28%                      #486.6
                                # LOE rbx r12 r13 r14 r15
..B14.87:                       # Preds ..B14.86
                                # Execution count [2.88e-03]: Infreq
        movl      $-2147483648, %r8d                            #486.6
        cmpq      $-2147483648, %r15                            #486.6
        movl      %r15d, %edi                                   #486.6
        cmovl     %r8d, %edi                                    #486.6
        jmp       ..B14.90      # Prob 100%                     #486.6
                                # LOE rbx r12 r13 r14 edi
..B14.88:                       # Preds ..B14.86
                                # Execution count [1.12e-03]: Infreq
        movl      $2147483647, %edi                             #486.6
                                # LOE rbx r12 r13 r14 edi
..B14.90:                       # Preds ..B14.87 ..B14.88 ..B14.168
                                # Execution count [1.82e-02]: Infreq
        shrl      $31, %edi                                     #486.6
        jmp       ..B14.65      # Prob 100%                     #486.6
                                # LOE rbx r12 r13 r14 edi
..B14.91:                       # Preds ..B14.45
                                # Execution count [4.77e-02]: Infreq
        movq      (%rsp), %r14                                  #[spill]
        movq      %rbx, %r8                                     #
        movq      8(%rsp), %r13                                 #[spill]
        movq      %r12, %rbx                                    #
        movq      16(%rsp), %r12                                #[spill]
                                # LOE rbx rbp r8 r12 r13 r14 r15
..B14.92:                       # Preds ..B14.91 ..B14.37
                                # Execution count [4.85e-02]: Infreq
        cmpq      24(%rsp), %rbx                                #486.6[spill]
        je        ..B14.62      # Prob 28%                      #486.6
                                # LOE rbx rbp r8 r12 r13 r14 r15
..B14.93:                       # Preds ..B14.92
                                # Execution count [3.49e-02]: Infreq
        movq      %rbx, %rdi                                    #486.6
        movq      %r8, 24(%rsp)                                 #486.6[spill]
#       std::_Rb_tree_decrement(std::_Rb_tree_node_base *)
        call      _ZSt18_Rb_tree_decrementPSt18_Rb_tree_node_base #486.6
                                # LOE rax rbx rbp r12 r13 r14 r15
..B14.169:                      # Preds ..B14.93
                                # Execution count [3.49e-02]: Infreq
        movq      24(%rsp), %r8                                 #[spill]
        movq      %rax, %r9                                     #486.6
                                # LOE rbx rbp r8 r9 r12 r13 r14 r15
..B14.94:                       # Preds ..B14.169 ..B14.102
                                # Execution count [8.34e-02]: Infreq
        movq      32(%r9), %rdi                                 #486.6
        movq      %r15, %rdx                                    #486.6
        movq      32(%rsp), %rsi                                #486.6[spill]
        movq      %r9, 8(%rsp)                                  #486.6[spill]
        movq      -24(%rdi), %r10                               #486.6
        cmpq      %r10, %r15                                    #486.6
        movq      %r10, (%rsp)                                  #486.6[spill]
        cmovae    %r10, %rdx                                    #486.6
        movq      %r8, 24(%rsp)                                 #486.6[spill]
        call      _intel_fast_memcmp                            #486.6
                                # LOE rbx rbp r12 r13 r14 r15 eax
..B14.170:                      # Preds ..B14.94
                                # Execution count [8.34e-02]: Infreq
        movq      24(%rsp), %r8                                 #[spill]
        movq      8(%rsp), %r9                                  #[spill]
        testl     %eax, %eax                                    #486.6
        jne       ..B14.99      # Prob 78%                      #486.6
                                # LOE rbx rbp r8 r9 r12 r13 r14 r15 eax
..B14.95:                       # Preds ..B14.170
                                # Execution count [1.83e-02]: Infreq
        movq      (%rsp), %r10                                  #486.6[spill]
        subq      %r15, %r10                                    #486.6
        movq      %r10, (%rsp)                                  #486.6[spill]
        cmpq      $2147483647, %r10                             #486.6
        jg        ..B14.97      # Prob 28%                      #486.6
                                # LOE rbx rbp r8 r9 r10 r12 r13 r14
..B14.96:                       # Preds ..B14.95
                                # Execution count [1.32e-02]: Infreq
        movq      %r10, %rax                                    #486.6
        movl      $-2147483648, %r10d                           #486.6
        cmpq      $-2147483648, %rax                            #486.6
        cmovl     %r10d, %eax                                   #486.6
        jmp       ..B14.99      # Prob 100%                     #486.6
                                # LOE rbx rbp r8 r9 r12 r13 r14 eax
..B14.97:                       # Preds ..B14.95
                                # Execution count [5.13e-03]: Infreq
        movl      $2147483647, %eax                             #486.6
                                # LOE rbx rbp r8 r9 r12 r13 r14 eax
..B14.99:                       # Preds ..B14.96 ..B14.97 ..B14.170
                                # Execution count [8.34e-02]: Infreq
        testl     %eax, %eax                                    #486.6
        cmovge    %r9, %r8                                      #486.6
        movl      $0, %r9d                                      #486.6
        cmovge    %r9, %rbx                                     #486.6
        jmp       ..B14.62      # Prob 100%                     #486.6
                                # LOE rbx rbp r8 r12 r13 r14
..B14.102:                      # Preds ..B14.46
                                # Execution count [4.77e-02]: Infreq
        movq      %rbx, %r8                                     #
        movq      %r12, %rbx                                    #
        movq      (%rsp), %r14                                  #[spill]
        movq      %rbx, %r9                                     #486.6
        movq      8(%rsp), %r13                                 #[spill]
        movq      16(%rsp), %r12                                #[spill]
        jmp       ..B14.94      # Prob 100%                     #
                                # LOE rbx rbp r8 r9 r12 r13 r14 r15
..B14.103:                      # Preds ..B14.28
                                # Execution count [1.84e-02]: Infreq
        movq      %r8, %rbx                                     #486.6
        movq      %rbx, %r8                                     #486.6
        jmp       ..B14.62      # Prob 100%                     #486.6
                                # LOE rbx rbp r8 r12 r13 r14
..B14.104:                      # Preds ..B14.62
                                # Execution count [7.69e-02]: Infreq
        movq      32(%r14), %rax                                #486.6
        movq      %rax, 32(%rsp)                                #486.6[spill]
        jmp       ..B14.78      # Prob 100%                     #486.6
                                # LOE r8 r14
..B14.106:                      # Preds ..B14.75
                                # Execution count [3.44e-02]: Infreq
        movq      (%rsp), %r14                                  #[spill]
        movq      %rbx, %r8                                     #
        movq      16(%rsp), %r12                                #[spill]
        movq      %rbp, %rbx                                    #
        movq      %r13, %rbp                                    #
        movq      8(%rsp), %r13                                 #[spill]
                                # LOE rbx rbp r8 r12 r13 r14 r15
..B14.107:                      # Preds ..B14.106 ..B14.67
                                # Execution count [3.49e-02]: Infreq
        cmpq      24(%r12), %rbx                                #486.6
        je        ..B14.62      # Prob 28%                      #486.6
                                # LOE rbx rbp r8 r12 r13 r14 r15
..B14.108:                      # Preds ..B14.107
                                # Execution count [2.51e-02]: Infreq
        movq      %rbx, %rdi                                    #486.6
        movq      %r8, 24(%rsp)                                 #486.6[spill]
#       std::_Rb_tree_decrement(std::_Rb_tree_node_base *)
        call      _ZSt18_Rb_tree_decrementPSt18_Rb_tree_node_base #486.6
                                # LOE rax rbx rbp r12 r13 r14 r15
..B14.171:                      # Preds ..B14.108
                                # Execution count [2.51e-02]: Infreq
        movq      24(%rsp), %r8                                 #[spill]
        movq      %rax, %r9                                     #486.6
                                # LOE rbx rbp r8 r9 r12 r13 r14 r15
..B14.109:                      # Preds ..B14.171 ..B14.117
                                # Execution count [6.00e-02]: Infreq
        movq      32(%r9), %rdi                                 #486.6
        movq      %r15, %rdx                                    #486.6
        movq      32(%rsp), %rsi                                #486.6[spill]
        movq      %r9, 8(%rsp)                                  #486.6[spill]
        movq      -24(%rdi), %r10                               #486.6
        cmpq      %r10, %r15                                    #486.6
        movq      %r10, (%rsp)                                  #486.6[spill]
        cmovae    %r10, %rdx                                    #486.6
        movq      %r8, 24(%rsp)                                 #486.6[spill]
        call      _intel_fast_memcmp                            #486.6
                                # LOE rbx rbp r12 r13 r14 r15 eax
..B14.172:                      # Preds ..B14.109
                                # Execution count [6.00e-02]: Infreq
        movq      24(%rsp), %r8                                 #[spill]
        movq      8(%rsp), %r9                                  #[spill]
        testl     %eax, %eax                                    #486.6
        jne       ..B14.114     # Prob 78%                      #486.6
                                # LOE rbx rbp r8 r9 r12 r13 r14 r15 eax
..B14.110:                      # Preds ..B14.172
                                # Execution count [1.32e-02]: Infreq
        movq      (%rsp), %r10                                  #486.6[spill]
        subq      %r15, %r10                                    #486.6
        movq      %r10, (%rsp)                                  #486.6[spill]
        cmpq      $2147483647, %r10                             #486.6
        jg        ..B14.112     # Prob 28%                      #486.6
                                # LOE rbx rbp r8 r9 r10 r12 r13 r14
..B14.111:                      # Preds ..B14.110
                                # Execution count [9.51e-03]: Infreq
        movq      %r10, %rax                                    #486.6
        movl      $-2147483648, %r10d                           #486.6
        cmpq      $-2147483648, %rax                            #486.6
        cmovl     %r10d, %eax                                   #486.6
        jmp       ..B14.114     # Prob 100%                     #486.6
                                # LOE rbx rbp r8 r9 r12 r13 r14 eax
..B14.112:                      # Preds ..B14.110
                                # Execution count [3.70e-03]: Infreq
        movl      $2147483647, %eax                             #486.6
                                # LOE rbx rbp r8 r9 r12 r13 r14 eax
..B14.114:                      # Preds ..B14.111 ..B14.112 ..B14.172
                                # Execution count [6.00e-02]: Infreq
        testl     %eax, %eax                                    #486.6
        cmovge    %r9, %r8                                      #486.6
        movl      $0, %r9d                                      #486.6
        cmovge    %r9, %rbx                                     #486.6
        jmp       ..B14.62      # Prob 100%                     #486.6
                                # LOE rbx rbp r8 r12 r13 r14
..B14.117:                      # Preds ..B14.76
                                # Execution count [3.44e-02]: Infreq
        movq      %rbx, %r8                                     #
        movq      %rbp, %rbx                                    #
        movq      (%rsp), %r14                                  #[spill]
        movq      %r13, %rbp                                    #
        movq      8(%rsp), %r13                                 #[spill]
        movq      %rbx, %r9                                     #486.6
        movq      16(%rsp), %r12                                #[spill]
        jmp       ..B14.109     # Prob 100%                     #
                                # LOE rbx rbp r8 r9 r12 r13 r14 r15
..B14.119:                      # Preds ..B14.78
                                # Execution count [4.97e-03]: Infreq
        movl      $__pthread_key_create, %eax                   #486.6
        testq     %rax, %rax                                    #486.6
        je        ..B14.122     # Prob 50%                      #486.6
                                # LOE rbp r8 r14
..B14.120:                      # Preds ..B14.119
                                # Execution count [2.49e-03]: Infreq
        movq      32(%rsp), %rdi                                #486.6[spill]
        movl      $-1, %ecx                                     #486.6
        addq      $-8, %rdi                                     #486.6
        lock      
        xaddl     %ecx, (%rdi)                                  #486.6
        jmp       ..B14.123     # Prob 100%                     #486.6
                                # LOE rbp r8 r14 ecx
..B14.122:                      # Preds ..B14.119
                                # Execution count [2.49e-03]: Infreq
        movl      16(%rbp), %ecx                                #486.6
        lea       -1(%rcx), %eax                                #486.6
        movl      %eax, 16(%rbp)                                #486.6
                                # LOE rbp r8 r14 ecx
..B14.123:                      # Preds ..B14.120 ..B14.122
                                # Execution count [4.97e-03]: Infreq
        testl     %ecx, %ecx                                    #486.6
        jg        ..B14.79      # Prob 94%                      #486.6
                                # LOE rbp r8 r14
..B14.124:                      # Preds ..B14.123
                                # Execution count [2.53e-04]: Infreq
        movq      %rbp, %rdi                                    #486.6
        lea       (%rsp), %rsi                                  #486.6
        movq      %r8, 24(%rsi)                                 #486.6[spill]
#       std::basic_string<char, std::char_traits<char>, std::allocator<char>>::_Rep::_M_destroy(std::basic_string<char, std::char_traits<char>, std::allocator<char>>::_Rep *, const std::allocator<char> &)
        call      _ZNSs4_Rep10_M_destroyERKSaIcE                #486.6
                                # LOE r14
..B14.179:                      # Preds ..B14.124
                                # Execution count [2.53e-04]: Infreq
        movq      24(%rsp), %r8                                 #[spill]
        jmp       ..B14.79      # Prob 100%                     #
                                # LOE r8 r14
..B14.125:                      # Preds ..B14.21
                                # Execution count [9.94e-02]: Infreq
        cmpq      $0, 40(%r12)                                  #486.6
        jbe       ..B14.133     # Prob 57%                      #486.6
                                # LOE rbp r12 r13 r14
..B14.126:                      # Preds ..B14.125
                                # Execution count [4.18e-02]: Infreq
        movq      32(%r12), %rbx                                #486.6
        movq      32(%r14), %rsi                                #486.6
        movq      %rsi, 32(%rsp)                                #486.6[spill]
        movq      32(%rbx), %rdi                                #486.6
        movq      -24(%rsi), %r8                                #486.6
        movq      %r8, (%rsp)                                   #486.6[spill]
        movq      -24(%rdi), %r15                               #486.6
        cmpq      %r15, %r8                                     #486.6
        movq      %r15, %rdx                                    #486.6
        cmovb     %r8, %rdx                                     #486.6
        call      _intel_fast_memcmp                            #486.6
                                # LOE rbx rbp r12 r13 r14 r15 eax
..B14.174:                      # Preds ..B14.126
                                # Execution count [4.18e-02]: Infreq
        testl     %eax, %eax                                    #486.6
        jne       ..B14.131     # Prob 78%                      #486.6
                                # LOE rbx rbp r12 r13 r14 r15 eax
..B14.127:                      # Preds ..B14.174
                                # Execution count [9.19e-03]: Infreq
        subq      (%rsp), %r15                                  #486.6[spill]
        cmpq      $2147483647, %r15                             #486.6
        jg        ..B14.129     # Prob 28%                      #486.6
                                # LOE rbx rbp r12 r13 r14 r15
..B14.128:                      # Preds ..B14.127
                                # Execution count [6.62e-03]: Infreq
        movl      $-2147483648, %r8d                            #486.6
        cmpq      $-2147483648, %r15                            #486.6
        movl      %r15d, %eax                                   #486.6
        cmovl     %r8d, %eax                                    #486.6
        jmp       ..B14.131     # Prob 100%                     #486.6
                                # LOE rbx rbp r12 r13 r14 eax
